                              1 ;--------------------------------------------------------
                              2 ; File Created by SDCC : free open source ANSI-C Compiler
                              3 ; Version 3.1.0 #7066 (Jun 14 2012) (Linux)
                              4 ; This file was generated Tue Aug  5 21:17:44 2014
                              5 ;--------------------------------------------------------
                              6 	.module fb_app_rs
                              7 	.optsdcc -mmcs51 --model-small
                              8 	
                              9 ;--------------------------------------------------------
                             10 ; Public variables in this module
                             11 ;--------------------------------------------------------
                             12 	.globl _baud
                             13 	.globl _esc_char
                             14 	.globl _echo
                             15 	.globl _ga_db
                             16 	.globl _sga_l
                             17 	.globl _sga_h
                             18 	.globl _pa_l
                             19 	.globl _pa_h
                             20 	.globl _fm
                             21 	.globl _rs_send_s
                             22 	.globl _rs_send
                             23 	.globl _rs_send_dec
                             24 	.globl _P3_1
                             25 	.globl _P3_0
                             26 	.globl _P1_7
                             27 	.globl _P1_6
                             28 	.globl _P1_5
                             29 	.globl _P1_4
                             30 	.globl _P1_3
                             31 	.globl _P1_2
                             32 	.globl _P1_1
                             33 	.globl _P1_0
                             34 	.globl _P0_7
                             35 	.globl _P0_6
                             36 	.globl _P0_5
                             37 	.globl _P0_4
                             38 	.globl _P0_3
                             39 	.globl _P0_2
                             40 	.globl _P0_1
                             41 	.globl _P0_0
                             42 	.globl _I2CON_0
                             43 	.globl _I2CON_2
                             44 	.globl _I2CON_3
                             45 	.globl _I2CON_4
                             46 	.globl _I2CON_5
                             47 	.globl _I2CON_6
                             48 	.globl _SCON_7
                             49 	.globl _SCON_6
                             50 	.globl _SCON_5
                             51 	.globl _SCON_4
                             52 	.globl _SCON_3
                             53 	.globl _SCON_2
                             54 	.globl _SCON_1
                             55 	.globl _SCON_0
                             56 	.globl _IP0_0
                             57 	.globl _IP0_1
                             58 	.globl _IP0_2
                             59 	.globl _IP0_3
                             60 	.globl _IP0_4
                             61 	.globl _IP0_5
                             62 	.globl _IP0_6
                             63 	.globl _IP1_0
                             64 	.globl _IP1_1
                             65 	.globl _IP1_2
                             66 	.globl _IP1_6
                             67 	.globl _IEN1_0
                             68 	.globl _IEN1_1
                             69 	.globl _IEN1_2
                             70 	.globl _IEN0_0
                             71 	.globl _IEN0_1
                             72 	.globl _IEN0_2
                             73 	.globl _IEN0_3
                             74 	.globl _IEN0_4
                             75 	.globl _IEN0_5
                             76 	.globl _IEN0_6
                             77 	.globl _IEN0_7
                             78 	.globl _TCON_0
                             79 	.globl _TCON_1
                             80 	.globl _TCON_2
                             81 	.globl _TCON_3
                             82 	.globl _TCON_4
                             83 	.globl _TCON_5
                             84 	.globl _TCON_6
                             85 	.globl _TCON_7
                             86 	.globl _PSW_7
                             87 	.globl _PSW_6
                             88 	.globl _PSW_5
                             89 	.globl _PSW_4
                             90 	.globl _PSW_3
                             91 	.globl _PSW_2
                             92 	.globl _PSW_1
                             93 	.globl _PSW_0
                             94 	.globl _IEN1
                             95 	.globl _IP0H
                             96 	.globl _WFEED2
                             97 	.globl _WFEED1
                             98 	.globl _WDL
                             99 	.globl _WDCON
                            100 	.globl _TRIM
                            101 	.globl _TAMOD
                            102 	.globl _SSTAT
                            103 	.globl _RTCL
                            104 	.globl _RTCH
                            105 	.globl _RTCCON
                            106 	.globl _RSTSRC
                            107 	.globl _PT0AD
                            108 	.globl _PCONA
                            109 	.globl _P3M2
                            110 	.globl _P3M1
                            111 	.globl _P1M2
                            112 	.globl _P1M1
                            113 	.globl _P0M2
                            114 	.globl _P0M1
                            115 	.globl _KBPATN
                            116 	.globl _KBMASK
                            117 	.globl _KBCON
                            118 	.globl _IP1H
                            119 	.globl _IP1
                            120 	.globl _I2STAT
                            121 	.globl _I2SCLL
                            122 	.globl _I2SCLH
                            123 	.globl _I2DAT
                            124 	.globl _I2CON
                            125 	.globl _I2ADR
                            126 	.globl _FMDATA
                            127 	.globl _FMCON
                            128 	.globl _FMADRL
                            129 	.globl _FMADRH
                            130 	.globl _DIVM
                            131 	.globl _CMP2
                            132 	.globl _CMP1
                            133 	.globl _BRGCON
                            134 	.globl _BRGR1
                            135 	.globl _BRGR0
                            136 	.globl _SADEN
                            137 	.globl _SADDR
                            138 	.globl _AUXR1
                            139 	.globl _SBUF
                            140 	.globl _SCON
                            141 	.globl _IP0
                            142 	.globl _IEN0
                            143 	.globl _TH1
                            144 	.globl _TH0
                            145 	.globl _TL1
                            146 	.globl _TL0
                            147 	.globl _TMOD
                            148 	.globl _TCON
                            149 	.globl _PCON
                            150 	.globl _DPH
                            151 	.globl _DPL
                            152 	.globl _SP
                            153 	.globl _B
                            154 	.globl _ACC
                            155 	.globl _PSW
                            156 	.globl _P3
                            157 	.globl _P1
                            158 	.globl _P0
                            159 	.globl _rxledcount
                            160 	.globl _eibledcount
                            161 	.globl _ledcount
                            162 	.globl _pa_tmp
                            163 	.globl _groupadr
                            164 	.globl _rsinpos
                            165 	.globl _rsin
                            166 	.globl _build_tel
                            167 	.globl _gapos_in_gat
                            168 	.globl _send_obj_done
                            169 	.globl _write_value_req
                            170 	.globl _read_value_req
                            171 	.globl _save_ga
                            172 	.globl _tel_header
                            173 	.globl _convert_adr
                            174 	.globl _equal_pos
                            175 	.globl _serial_int
                            176 	.globl _send_ok
                            177 	.globl _set_filtermode
                            178 	.globl _restart_app
                            179 ;--------------------------------------------------------
                            180 ; special function registers
                            181 ;--------------------------------------------------------
                            182 	.area RSEG    (ABS,DATA)
   0000                     183 	.org 0x0000
                    0080    184 _P0	=	0x0080
                    0090    185 _P1	=	0x0090
                    00B0    186 _P3	=	0x00b0
                    00D0    187 _PSW	=	0x00d0
                    00E0    188 _ACC	=	0x00e0
                    00F0    189 _B	=	0x00f0
                    0081    190 _SP	=	0x0081
                    0082    191 _DPL	=	0x0082
                    0083    192 _DPH	=	0x0083
                    0087    193 _PCON	=	0x0087
                    0088    194 _TCON	=	0x0088
                    0089    195 _TMOD	=	0x0089
                    008A    196 _TL0	=	0x008a
                    008B    197 _TL1	=	0x008b
                    008C    198 _TH0	=	0x008c
                    008D    199 _TH1	=	0x008d
                    00A8    200 _IEN0	=	0x00a8
                    00B8    201 _IP0	=	0x00b8
                    0098    202 _SCON	=	0x0098
                    0099    203 _SBUF	=	0x0099
                    00A2    204 _AUXR1	=	0x00a2
                    00A9    205 _SADDR	=	0x00a9
                    00B9    206 _SADEN	=	0x00b9
                    00BE    207 _BRGR0	=	0x00be
                    00BF    208 _BRGR1	=	0x00bf
                    00BD    209 _BRGCON	=	0x00bd
                    00AC    210 _CMP1	=	0x00ac
                    00AD    211 _CMP2	=	0x00ad
                    0095    212 _DIVM	=	0x0095
                    00E7    213 _FMADRH	=	0x00e7
                    00E6    214 _FMADRL	=	0x00e6
                    00E4    215 _FMCON	=	0x00e4
                    00E5    216 _FMDATA	=	0x00e5
                    00DB    217 _I2ADR	=	0x00db
                    00D8    218 _I2CON	=	0x00d8
                    00DA    219 _I2DAT	=	0x00da
                    00DD    220 _I2SCLH	=	0x00dd
                    00DC    221 _I2SCLL	=	0x00dc
                    00D9    222 _I2STAT	=	0x00d9
                    00F8    223 _IP1	=	0x00f8
                    00F7    224 _IP1H	=	0x00f7
                    0094    225 _KBCON	=	0x0094
                    0086    226 _KBMASK	=	0x0086
                    0093    227 _KBPATN	=	0x0093
                    0084    228 _P0M1	=	0x0084
                    0085    229 _P0M2	=	0x0085
                    0091    230 _P1M1	=	0x0091
                    0092    231 _P1M2	=	0x0092
                    00B1    232 _P3M1	=	0x00b1
                    00B2    233 _P3M2	=	0x00b2
                    00B5    234 _PCONA	=	0x00b5
                    00F6    235 _PT0AD	=	0x00f6
                    00DF    236 _RSTSRC	=	0x00df
                    00D1    237 _RTCCON	=	0x00d1
                    00D2    238 _RTCH	=	0x00d2
                    00D3    239 _RTCL	=	0x00d3
                    00BA    240 _SSTAT	=	0x00ba
                    008F    241 _TAMOD	=	0x008f
                    0096    242 _TRIM	=	0x0096
                    00A7    243 _WDCON	=	0x00a7
                    00C1    244 _WDL	=	0x00c1
                    00C2    245 _WFEED1	=	0x00c2
                    00C3    246 _WFEED2	=	0x00c3
                    00B7    247 _IP0H	=	0x00b7
                    00E8    248 _IEN1	=	0x00e8
                            249 ;--------------------------------------------------------
                            250 ; special function bits
                            251 ;--------------------------------------------------------
                            252 	.area RSEG    (ABS,DATA)
   0000                     253 	.org 0x0000
                    00D0    254 _PSW_0	=	0x00d0
                    00D1    255 _PSW_1	=	0x00d1
                    00D2    256 _PSW_2	=	0x00d2
                    00D3    257 _PSW_3	=	0x00d3
                    00D4    258 _PSW_4	=	0x00d4
                    00D5    259 _PSW_5	=	0x00d5
                    00D6    260 _PSW_6	=	0x00d6
                    00D7    261 _PSW_7	=	0x00d7
                    008F    262 _TCON_7	=	0x008f
                    008E    263 _TCON_6	=	0x008e
                    008D    264 _TCON_5	=	0x008d
                    008C    265 _TCON_4	=	0x008c
                    008B    266 _TCON_3	=	0x008b
                    008A    267 _TCON_2	=	0x008a
                    0089    268 _TCON_1	=	0x0089
                    0088    269 _TCON_0	=	0x0088
                    00AF    270 _IEN0_7	=	0x00af
                    00AE    271 _IEN0_6	=	0x00ae
                    00AD    272 _IEN0_5	=	0x00ad
                    00AC    273 _IEN0_4	=	0x00ac
                    00AB    274 _IEN0_3	=	0x00ab
                    00AA    275 _IEN0_2	=	0x00aa
                    00A9    276 _IEN0_1	=	0x00a9
                    00A8    277 _IEN0_0	=	0x00a8
                    00EA    278 _IEN1_2	=	0x00ea
                    00E9    279 _IEN1_1	=	0x00e9
                    00E8    280 _IEN1_0	=	0x00e8
                    00FE    281 _IP1_6	=	0x00fe
                    00FA    282 _IP1_2	=	0x00fa
                    00F9    283 _IP1_1	=	0x00f9
                    00F8    284 _IP1_0	=	0x00f8
                    00BE    285 _IP0_6	=	0x00be
                    00BD    286 _IP0_5	=	0x00bd
                    00BC    287 _IP0_4	=	0x00bc
                    00BB    288 _IP0_3	=	0x00bb
                    00BA    289 _IP0_2	=	0x00ba
                    00B9    290 _IP0_1	=	0x00b9
                    00B8    291 _IP0_0	=	0x00b8
                    0098    292 _SCON_0	=	0x0098
                    0099    293 _SCON_1	=	0x0099
                    009A    294 _SCON_2	=	0x009a
                    009B    295 _SCON_3	=	0x009b
                    009C    296 _SCON_4	=	0x009c
                    009D    297 _SCON_5	=	0x009d
                    009E    298 _SCON_6	=	0x009e
                    009F    299 _SCON_7	=	0x009f
                    00DE    300 _I2CON_6	=	0x00de
                    00DD    301 _I2CON_5	=	0x00dd
                    00DC    302 _I2CON_4	=	0x00dc
                    00DB    303 _I2CON_3	=	0x00db
                    00DA    304 _I2CON_2	=	0x00da
                    00D8    305 _I2CON_0	=	0x00d8
                    0080    306 _P0_0	=	0x0080
                    0081    307 _P0_1	=	0x0081
                    0082    308 _P0_2	=	0x0082
                    0083    309 _P0_3	=	0x0083
                    0084    310 _P0_4	=	0x0084
                    0085    311 _P0_5	=	0x0085
                    0086    312 _P0_6	=	0x0086
                    0087    313 _P0_7	=	0x0087
                    0090    314 _P1_0	=	0x0090
                    0091    315 _P1_1	=	0x0091
                    0092    316 _P1_2	=	0x0092
                    0093    317 _P1_3	=	0x0093
                    0094    318 _P1_4	=	0x0094
                    0095    319 _P1_5	=	0x0095
                    0096    320 _P1_6	=	0x0096
                    0097    321 _P1_7	=	0x0097
                    00B0    322 _P3_0	=	0x00b0
                    00B1    323 _P3_1	=	0x00b1
                            324 ;--------------------------------------------------------
                            325 ; overlayable register banks
                            326 ;--------------------------------------------------------
                            327 	.area REG_BANK_0	(REL,OVR,DATA)
   0000                     328 	.ds 8
                            329 	.area REG_BANK_1	(REL,OVR,DATA)
   0000                     330 	.ds 8
                            331 ;--------------------------------------------------------
                            332 ; overlayable bit register bank
                            333 ;--------------------------------------------------------
                            334 	.area BIT_BANK	(REL,OVR,DATA)
   0000                     335 bits:
   0000                     336 	.ds 1
                    8000    337 	b0 = bits[0]
                    8100    338 	b1 = bits[1]
                    8200    339 	b2 = bits[2]
                    8300    340 	b3 = bits[3]
                    8400    341 	b4 = bits[4]
                    8500    342 	b5 = bits[5]
                    8600    343 	b6 = bits[6]
                    8700    344 	b7 = bits[7]
                            345 ;--------------------------------------------------------
                            346 ; internal ram data
                            347 ;--------------------------------------------------------
                            348 	.area DSEG    (DATA)
   0000                     349 _rsin::
   0000                     350 	.ds 30
   001E                     351 _rsinpos::
   001E                     352 	.ds 1
   001F                     353 _groupadr::
   001F                     354 	.ds 2
   0021                     355 _pa_tmp::
   0021                     356 	.ds 2
   0023                     357 _ledcount::
   0023                     358 	.ds 1
   0024                     359 _eibledcount::
   0024                     360 	.ds 1
   0025                     361 _rxledcount::
   0025                     362 	.ds 1
                            363 ;--------------------------------------------------------
                            364 ; overlayable items in internal ram 
                            365 ;--------------------------------------------------------
                            366 	.area OSEG    (OVR,DATA)
                            367 ;--------------------------------------------------------
                            368 ; indirectly addressable internal ram data
                            369 ;--------------------------------------------------------
                            370 	.area ISEG    (DATA)
                            371 ;--------------------------------------------------------
                            372 ; absolute internal ram data
                            373 ;--------------------------------------------------------
                            374 	.area IABS    (ABS,DATA)
                            375 	.area IABS    (ABS,DATA)
                            376 ;--------------------------------------------------------
                            377 ; bit data
                            378 ;--------------------------------------------------------
                            379 	.area BSEG    (BIT)
                            380 ;--------------------------------------------------------
                            381 ; paged external ram data
                            382 ;--------------------------------------------------------
                            383 	.area PSEG    (PAG,XDATA)
                            384 ;--------------------------------------------------------
                            385 ; external ram data
                            386 ;--------------------------------------------------------
                            387 	.area XSEG    (XDATA)
                            388 ;--------------------------------------------------------
                            389 ; absolute external ram data
                            390 ;--------------------------------------------------------
                            391 	.area XABS    (ABS,XDATA)
                            392 ;--------------------------------------------------------
                            393 ; external initialized ram data
                            394 ;--------------------------------------------------------
                            395 	.area XISEG   (XDATA)
                            396 	.area HOME    (CODE)
                            397 	.area GSINIT0 (CODE)
                            398 	.area GSINIT1 (CODE)
                            399 	.area GSINIT2 (CODE)
                            400 	.area GSINIT3 (CODE)
                            401 	.area GSINIT4 (CODE)
                            402 	.area GSINIT5 (CODE)
                            403 	.area GSINIT  (CODE)
                            404 	.area GSFINAL (CODE)
                            405 	.area CSEG    (CODE)
                            406 ;--------------------------------------------------------
                            407 ; global & static initialisations
                            408 ;--------------------------------------------------------
                            409 	.area HOME    (CODE)
                            410 	.area GSINIT  (CODE)
                            411 	.area GSFINAL (CODE)
                            412 	.area GSINIT  (CODE)
                            413 ;	../fb_app_rs.c:26: unsigned int groupadr=0,pa_tmp;
   0000 E4                  414 	clr	a
   0001 F5*1F               415 	mov	_groupadr,a
   0003 F5*20               416 	mov	(_groupadr + 1),a
                            417 ;--------------------------------------------------------
                            418 ; Home
                            419 ;--------------------------------------------------------
                            420 	.area HOME    (CODE)
                            421 	.area HOME    (CODE)
                            422 ;--------------------------------------------------------
                            423 ; code
                            424 ;--------------------------------------------------------
                            425 	.area CSEG    (CODE)
                            426 ;------------------------------------------------------------
                            427 ;Allocation info for local variables in function 'build_tel'
                            428 ;------------------------------------------------------------
                            429 ;objno                     Allocated to registers r7 
                            430 ;build_ok                  Allocated to registers 
                            431 ;value                     Allocated to registers r4 r7 
                            432 ;eis5temp                  Allocated to registers r7 r5 
                            433 ;exp                       Allocated to registers r6 r5 
                            434 ;temp                      Allocated to stack - _bp +1
                            435 ;d                         Allocated to registers r4 
                            436 ;value_pos                 Allocated to registers r5 
                            437 ;day                       Allocated to registers r6 
                            438 ;repeatflag                Allocated to registers b0 
                            439 ;sloc0                     Allocated to stack - _bp +17
                            440 ;sloc1                     Allocated to stack - _bp +5
                            441 ;sloc2                     Allocated to stack - _bp +20
                            442 ;sloc3                     Allocated to stack - _bp +7
                            443 ;sloc4                     Allocated to stack - _bp +23
                            444 ;------------------------------------------------------------
                            445 ;	../fb_app_rs.c:55: __bit build_tel(unsigned char objno)
                            446 ;	-----------------------------------------
                            447 ;	 function build_tel
                            448 ;	-----------------------------------------
   0000                     449 _build_tel:
                    0007    450 	ar7 = 0x07
                    0006    451 	ar6 = 0x06
                    0005    452 	ar5 = 0x05
                    0004    453 	ar4 = 0x04
                    0003    454 	ar3 = 0x03
                    0002    455 	ar2 = 0x02
                    0001    456 	ar1 = 0x01
                    0000    457 	ar0 = 0x00
   0000 C0*00               458 	push	_bp
   0002 E5 81               459 	mov	a,sp
   0004 F5*00               460 	mov	_bp,a
   0006 24 07               461 	add	a,#0x07
   0008 F5 81               462 	mov	sp,a
   000A AF 82               463 	mov	r7,dpl
                            464 ;	../fb_app_rs.c:64: unsigned char day=0;//, length;
   000C 7E 00               465 	mov	r6,#0x00
                            466 ;	../fb_app_rs.c:68: repeatflag=objno&0x20;
   000E EF                  467 	mov	a,r7
   000F A2 E5               468 	mov	c,acc[5]
   0011 E4                  469 	clr	a
   0012 33                  470 	rlc	a
   0013 24 FF               471 	add	a,#0xff
   0015 92*00               472 	mov	b0,c
                            473 ;	../fb_app_rs.c:69: groupadr=convert_adr(6);
   0017 75 82 06            474 	mov	dpl,#0x06
   001A C0 07               475 	push	ar7
   001C C0 06               476 	push	ar6
   001E C0*00               477 	push	bits
   0020 12s08rBE            478 	lcall	_convert_adr
   0023 85 82*1F            479 	mov	_groupadr,dpl
   0026 85 83*20            480 	mov	(_groupadr + 1),dph
   0029 D0*00               481 	pop	bits
                            482 ;	../fb_app_rs.c:70: value_pos=equal_pos()+1;
   002B C0*00               483 	push	bits
   002D 12s09rCB            484 	lcall	_equal_pos
   0030 AD 82               485 	mov	r5,dpl
   0032 D0*00               486 	pop	bits
   0034 D0 06               487 	pop	ar6
   0036 D0 07               488 	pop	ar7
   0038 0D                  489 	inc	r5
                            490 ;	../fb_app_rs.c:71: switch (objno)// entspricht in der rs soft dem eis type.
   0039 EF                  491 	mov	a,r7
   003A 24 EF               492 	add	a,#0xff - 0x10
   003C 50 03               493 	jnc	00173$
   003E 02s05r42            494 	ljmp	00141$
   0041                     495 00173$:
   0041 EF                  496 	mov	a,r7
   0042 24 09               497 	add	a,#(00174$-3-.)
   0044 83                  498 	movc	a,@a+pc
   0045 C0 E0               499 	push	acc
   0047 EF                  500 	mov	a,r7
   0048 24 14               501 	add	a,#(00175$-3-.)
   004A 83                  502 	movc	a,@a+pc
   004B C0 E0               503 	push	acc
   004D 22                  504 	ret
   004E                     505 00174$:
   004Er42                  506 	.db	00141$
   004Fr70                  507 	.db	00101$
   0050rA3                  508 	.db	00105$
   0051rEE                  509 	.db	00109$
   0052rFD                  510 	.db	00110$
   0053r6C                  511 	.db	00111$
   0054r1A                  512 	.db	00131$
   0055r42                  513 	.db	00141$
   0056r42                  514 	.db	00141$
   0057r42                  515 	.db	00141$
   0058r42                  516 	.db	00141$
   0059r42                  517 	.db	00141$
   005Ar42                  518 	.db	00141$
   005Br42                  519 	.db	00141$
   005Cr9A                  520 	.db	00135$
   005DrB3                  521 	.db	00136$
   005Er1C                  522 	.db	00140$
   005F                     523 00175$:
   005Fs05                  524 	.db	00141$>>8
   0060s00                  525 	.db	00101$>>8
   0061s00                  526 	.db	00105$>>8
   0062s00                  527 	.db	00109$>>8
   0063s00                  528 	.db	00110$>>8
   0064s01                  529 	.db	00111$>>8
   0065s04                  530 	.db	00131$>>8
   0066s05                  531 	.db	00141$>>8
   0067s05                  532 	.db	00141$>>8
   0068s05                  533 	.db	00141$>>8
   0069s05                  534 	.db	00141$>>8
   006As05                  535 	.db	00141$>>8
   006Bs05                  536 	.db	00141$>>8
   006Cs05                  537 	.db	00141$>>8
   006Ds04                  538 	.db	00135$>>8
   006Es04                  539 	.db	00136$>>8
   006Fs05                  540 	.db	00140$>>8
                            541 ;	../fb_app_rs.c:76: case 1:// EIS1
   0070                     542 00101$:
                            543 ;	../fb_app_rs.c:77: tel_header(groupadr, 1);
   0070 C0*00               544 	push	bits
   0072 74 01               545 	mov	a,#0x01
   0074 C0 E0               546 	push	acc
   0076 85*1F 82            547 	mov	dpl,_groupadr
   0079 85*20 83            548 	mov	dph,(_groupadr + 1)
   007C 12s08r8C            549 	lcall	_tel_header
   007F 15 81               550 	dec	sp
   0081 D0*00               551 	pop	bits
                            552 ;	../fb_app_rs.c:78: if (rsin[rsinpos-2]=='1') value=1;
   0083 E5*1E               553 	mov	a,_rsinpos
   0085 24 FE               554 	add	a,#0xFE
   0087 24r00               555 	add	a,#_rsin
   0089 F9                  556 	mov	r1,a
   008A 87 07               557 	mov	ar7,@r1
   008C BF 31 06            558 	cjne	r7,#0x31,00103$
   008F 7C 01               559 	mov	r4,#0x01
   0091 7F 00               560 	mov	r7,#0x00
   0093 80 04               561 	sjmp	00104$
   0095                     562 00103$:
                            563 ;	../fb_app_rs.c:79: else value=0;
   0095 7C 00               564 	mov	r4,#0x00
   0097 7F 00               565 	mov	r7,#0x00
   0099                     566 00104$:
                            567 ;	../fb_app_rs.c:80: telegramm[7]=0x80+value;
   0099 8C 03               568 	mov	ar3,r4
   009B 74 80               569 	mov	a,#0x80
   009D 2B                  570 	add	a,r3
   009E F5*07               571 	mov	(_telegramm + 0x0007),a
                            572 ;	../fb_app_rs.c:82: break;	
   00A0 02s05r42            573 	ljmp	00141$
                            574 ;	../fb_app_rs.c:83: case 2:// EIS2
   00A3                     575 00105$:
                            576 ;	../fb_app_rs.c:84: tel_header(groupadr, 1);
   00A3 C0*00               577 	push	bits
   00A5 74 01               578 	mov	a,#0x01
   00A7 C0 E0               579 	push	acc
   00A9 85*1F 82            580 	mov	dpl,_groupadr
   00AC 85*20 83            581 	mov	dph,(_groupadr + 1)
   00AF 12s08r8C            582 	lcall	_tel_header
   00B2 15 81               583 	dec	sp
   00B4 D0*00               584 	pop	bits
                            585 ;	../fb_app_rs.c:85: if (rsin[rsinpos-3]=='u') value=0x88;
   00B6 E5*1E               586 	mov	a,_rsinpos
   00B8 24 FD               587 	add	a,#0xFD
   00BA 24r00               588 	add	a,#_rsin
   00BC F9                  589 	mov	r1,a
   00BD 87 03               590 	mov	ar3,@r1
   00BF BB 75 06            591 	cjne	r3,#0x75,00107$
   00C2 7C 88               592 	mov	r4,#0x88
   00C4 7F 00               593 	mov	r7,#0x00
   00C6 80 04               594 	sjmp	00108$
   00C8                     595 00107$:
                            596 ;	../fb_app_rs.c:86: else value=0x80;
   00C8 7C 80               597 	mov	r4,#0x80
   00CA 7F 00               598 	mov	r7,#0x00
   00CC                     599 00108$:
                            600 ;	../fb_app_rs.c:87: value+=((rsin[rsinpos-2]-48));
   00CC E5*1E               601 	mov	a,_rsinpos
   00CE 24 FE               602 	add	a,#0xFE
   00D0 24r00               603 	add	a,#_rsin
   00D2 F9                  604 	mov	r1,a
   00D3 87 03               605 	mov	ar3,@r1
   00D5 7A 00               606 	mov	r2,#0x00
   00D7 EB                  607 	mov	a,r3
   00D8 24 D0               608 	add	a,#0xD0
   00DA FB                  609 	mov	r3,a
   00DB EA                  610 	mov	a,r2
   00DC 34 FF               611 	addc	a,#0xFF
   00DE FA                  612 	mov	r2,a
   00DF EB                  613 	mov	a,r3
   00E0 2C                  614 	add	a,r4
   00E1 FC                  615 	mov	r4,a
   00E2 EA                  616 	mov	a,r2
   00E3 3F                  617 	addc	a,r7
   00E4 FF                  618 	mov	r7,a
                            619 ;	../fb_app_rs.c:88: telegramm[7]=value&0xFF;
   00E5 8C 02               620 	mov	ar2,r4
   00E7 7B 00               621 	mov	r3,#0x00
   00E9 8A*07               622 	mov	(_telegramm + 0x0007),r2
                            623 ;	../fb_app_rs.c:89: break;	
   00EB 02s05r42            624 	ljmp	00141$
                            625 ;	../fb_app_rs.c:90: case 3:// EIS3
   00EE                     626 00109$:
                            627 ;	../fb_app_rs.c:91: day=(rsin[value_pos]-48)<<5;
   00EE ED                  628 	mov	a,r5
   00EF 24r00               629 	add	a,#_rsin
   00F1 F9                  630 	mov	r1,a
   00F2 E7                  631 	mov	a,@r1
   00F3 24 D0               632 	add	a,#0xD0
   00F5 FB                  633 	mov	r3,a
   00F6 C4                  634 	swap	a
   00F7 23                  635 	rl	a
   00F8 54 E0               636 	anl	a,#0xE0
   00FA FE                  637 	mov	r6,a
                            638 ;	../fb_app_rs.c:92: value_pos+=2;
   00FB 0D                  639 	inc	r5
   00FC 0D                  640 	inc	r5
                            641 ;	../fb_app_rs.c:93: case 4:// EIS4	
   00FD                     642 00110$:
                            643 ;	../fb_app_rs.c:94: tel_header(groupadr, 4);
   00FD C0 06               644 	push	ar6
   00FF C0 05               645 	push	ar5
   0101 C0*00               646 	push	bits
   0103 74 04               647 	mov	a,#0x04
   0105 C0 E0               648 	push	acc
   0107 85*1F 82            649 	mov	dpl,_groupadr
   010A 85*20 83            650 	mov	dph,(_groupadr + 1)
   010D 12s08r8C            651 	lcall	_tel_header
   0110 15 81               652 	dec	sp
   0112 D0*00               653 	pop	bits
   0114 D0 05               654 	pop	ar5
   0116 D0 06               655 	pop	ar6
                            656 ;	../fb_app_rs.c:95: telegramm[7]=0x80;
   0118 75*07 80            657 	mov	(_telegramm + 0x0007),#0x80
                            658 ;	../fb_app_rs.c:96: telegramm[8]=((rsin[value_pos]-48)*10)+(rsin[value_pos+1]-48)+day;
   011B ED                  659 	mov	a,r5
   011C 24r00               660 	add	a,#_rsin
   011E F9                  661 	mov	r1,a
   011F E7                  662 	mov	a,@r1
   0120 24 D0               663 	add	a,#0xD0
   0122 75 F0 0A            664 	mov	b,#0x0A
   0125 A4                  665 	mul	ab
   0126 FB                  666 	mov	r3,a
   0127 ED                  667 	mov	a,r5
   0128 04                  668 	inc	a
   0129 24r00               669 	add	a,#_rsin
   012B F9                  670 	mov	r1,a
   012C E7                  671 	mov	a,@r1
   012D FA                  672 	mov	r2,a
   012E 24 D0               673 	add	a,#0xD0
   0130 2B                  674 	add	a,r3
   0131 2E                  675 	add	a,r6
   0132 F5*08               676 	mov	(_telegramm + 0x0008),a
                            677 ;	../fb_app_rs.c:97: telegramm[9]=((rsin[value_pos+3]-48)*10)+(rsin[value_pos+4]-48);
   0134 74 03               678 	mov	a,#0x03
   0136 2D                  679 	add	a,r5
   0137 24r00               680 	add	a,#_rsin
   0139 F9                  681 	mov	r1,a
   013A E7                  682 	mov	a,@r1
   013B 24 D0               683 	add	a,#0xD0
   013D 75 F0 0A            684 	mov	b,#0x0A
   0140 A4                  685 	mul	ab
   0141 FE                  686 	mov	r6,a
   0142 74 04               687 	mov	a,#0x04
   0144 2D                  688 	add	a,r5
   0145 24r00               689 	add	a,#_rsin
   0147 F9                  690 	mov	r1,a
   0148 E7                  691 	mov	a,@r1
   0149 24 D0               692 	add	a,#0xD0
   014B 2E                  693 	add	a,r6
   014C F5*09               694 	mov	(_telegramm + 0x0009),a
                            695 ;	../fb_app_rs.c:98: telegramm[10]=((rsin[value_pos+6]-48)*10)+(rsin[value_pos+7]-48);
   014E 74 06               696 	mov	a,#0x06
   0150 2D                  697 	add	a,r5
   0151 24r00               698 	add	a,#_rsin
   0153 F9                  699 	mov	r1,a
   0154 E7                  700 	mov	a,@r1
   0155 24 D0               701 	add	a,#0xD0
   0157 75 F0 0A            702 	mov	b,#0x0A
   015A A4                  703 	mul	ab
   015B FE                  704 	mov	r6,a
   015C 74 07               705 	mov	a,#0x07
   015E 2D                  706 	add	a,r5
   015F 24r00               707 	add	a,#_rsin
   0161 F9                  708 	mov	r1,a
   0162 E7                  709 	mov	a,@r1
   0163 FB                  710 	mov	r3,a
   0164 24 D0               711 	add	a,#0xD0
   0166 2E                  712 	add	a,r6
   0167 F5*0A               713 	mov	(_telegramm + 0x000a),a
                            714 ;	../fb_app_rs.c:99: break;
   0169 02s05r42            715 	ljmp	00141$
                            716 ;	../fb_app_rs.c:107: */	case 5://
   016C                     717 00111$:
                            718 ;	../fb_app_rs.c:108: tel_header(groupadr, 3);
   016C C0 05               719 	push	ar5
   016E C0*00               720 	push	bits
   0170 74 03               721 	mov	a,#0x03
   0172 C0 E0               722 	push	acc
   0174 85*1F 82            723 	mov	dpl,_groupadr
   0177 85*20 83            724 	mov	dph,(_groupadr + 1)
   017A 12s08r8C            725 	lcall	_tel_header
   017D 15 81               726 	dec	sp
   017F D0*00               727 	pop	bits
   0181 D0 05               728 	pop	ar5
                            729 ;	../fb_app_rs.c:109: telegramm[7]=0x80;
   0183 75*07 80            730 	mov	(_telegramm + 0x0007),#0x80
                            731 ;	../fb_app_rs.c:111: if(rsin[value_pos]<48 || rsin[value_pos]>57) d=value_pos+1; else d=value_pos;	// falls Vorzeichen
   0186 ED                  732 	mov	a,r5
   0187 24r00               733 	add	a,#_rsin
   0189 F9                  734 	mov	r1,a
   018A 87 07               735 	mov	ar7,@r1
   018C BF 30 00            736 	cjne	r7,#0x30,00180$
   018F                     737 00180$:
   018F 40 05               738 	jc	00112$
   0191 EF                  739 	mov	a,r7
   0192 24 C6               740 	add	a,#0xff - 0x39
   0194 50 05               741 	jnc	00113$
   0196                     742 00112$:
   0196 ED                  743 	mov	a,r5
   0197 04                  744 	inc	a
   0198 FC                  745 	mov	r4,a
   0199 80 02               746 	sjmp	00114$
   019B                     747 00113$:
   019B 8D 04               748 	mov	ar4,r5
   019D                     749 00114$:
                            750 ;	../fb_app_rs.c:114: temp=0;
   019D A8*00               751 	mov	r0,_bp
   019F 08                  752 	inc	r0
   01A0 E4                  753 	clr	a
   01A1 F6                  754 	mov	@r0,a
   01A2 08                  755 	inc	r0
   01A3 F6                  756 	mov	@r0,a
   01A4 08                  757 	inc	r0
   01A5 F6                  758 	mov	@r0,a
   01A6 08                  759 	inc	r0
   01A7 F6                  760 	mov	@r0,a
                            761 ;	../fb_app_rs.c:115: while (d<(rsinpos-1) && rsin[d]!=0x2E && rsin[d]!=0x2C) {
   01A8 E5*00               762 	mov	a,_bp
   01AA 24 07               763 	add	a,#0x07
   01AC F8                  764 	mov	r0,a
   01AD A6 04               765 	mov	@r0,ar4
   01AF                     766 00118$:
   01AF E5*00               767 	mov	a,_bp
   01B1 24 05               768 	add	a,#0x05
   01B3 F8                  769 	mov	r0,a
   01B4 A6*1E               770 	mov	@r0,_rsinpos
   01B6 08                  771 	inc	r0
   01B7 76 00               772 	mov	@r0,#0x00
   01B9 E5*00               773 	mov	a,_bp
   01BB 24 05               774 	add	a,#0x05
   01BD F8                  775 	mov	r0,a
   01BE E6                  776 	mov	a,@r0
   01BF 24 FF               777 	add	a,#0xFF
   01C1 FE                  778 	mov	r6,a
   01C2 08                  779 	inc	r0
   01C3 E6                  780 	mov	a,@r0
   01C4 34 FF               781 	addc	a,#0xFF
   01C6 FD                  782 	mov	r5,a
   01C7 E5*00               783 	mov	a,_bp
   01C9 24 07               784 	add	a,#0x07
   01CB F8                  785 	mov	r0,a
   01CC 86 02               786 	mov	ar2,@r0
   01CE 7B 00               787 	mov	r3,#0x00
   01D0 C3                  788 	clr	c
   01D1 EA                  789 	mov	a,r2
   01D2 9E                  790 	subb	a,r6
   01D3 EB                  791 	mov	a,r3
   01D4 64 80               792 	xrl	a,#0x80
   01D6 8D F0               793 	mov	b,r5
   01D8 63 F0 80            794 	xrl	b,#0x80
   01DB 95 F0               795 	subb	a,b
   01DD 40 03               796 	jc	00183$
   01DF 02s02r65            797 	ljmp	00120$
   01E2                     798 00183$:
   01E2 E5*00               799 	mov	a,_bp
   01E4 24 07               800 	add	a,#0x07
   01E6 F8                  801 	mov	r0,a
   01E7 E6                  802 	mov	a,@r0
   01E8 24r00               803 	add	a,#_rsin
   01EA F9                  804 	mov	r1,a
   01EB 87 06               805 	mov	ar6,@r1
   01ED BE 2E 02            806 	cjne	r6,#0x2E,00184$
   01F0 80 73               807 	sjmp	00120$
   01F2                     808 00184$:
   01F2 BE 2C 02            809 	cjne	r6,#0x2C,00185$
   01F5 80 6E               810 	sjmp	00120$
   01F7                     811 00185$:
                            812 ;	../fb_app_rs.c:116: temp=temp*10;
   01F7 C0 07               813 	push	ar7
   01F9 C0 06               814 	push	ar6
   01FB C0*00               815 	push	bits
   01FD A8*00               816 	mov	r0,_bp
   01FF 08                  817 	inc	r0
   0200 E6                  818 	mov	a,@r0
   0201 C0 E0               819 	push	acc
   0203 08                  820 	inc	r0
   0204 E6                  821 	mov	a,@r0
   0205 C0 E0               822 	push	acc
   0207 08                  823 	inc	r0
   0208 E6                  824 	mov	a,@r0
   0209 C0 E0               825 	push	acc
   020B 08                  826 	inc	r0
   020C E6                  827 	mov	a,@r0
   020D C0 E0               828 	push	acc
   020F 90 00 0A            829 	mov	dptr,#(0x0A&0x00ff)
   0212 E4                  830 	clr	a
   0213 F5 F0               831 	mov	b,a
   0215 12s00r00            832 	lcall	__mullong
   0218 AD 82               833 	mov	r5,dpl
   021A AC 83               834 	mov	r4,dph
   021C AB F0               835 	mov	r3,b
   021E FA                  836 	mov	r2,a
   021F E5 81               837 	mov	a,sp
   0221 24 FC               838 	add	a,#0xfc
   0223 F5 81               839 	mov	sp,a
   0225 D0*00               840 	pop	bits
   0227 D0 06               841 	pop	ar6
   0229 D0 07               842 	pop	ar7
   022B A8*00               843 	mov	r0,_bp
   022D 08                  844 	inc	r0
   022E A6 05               845 	mov	@r0,ar5
   0230 08                  846 	inc	r0
   0231 A6 04               847 	mov	@r0,ar4
   0233 08                  848 	inc	r0
   0234 A6 03               849 	mov	@r0,ar3
   0236 08                  850 	inc	r0
   0237 A6 02               851 	mov	@r0,ar2
                            852 ;	../fb_app_rs.c:117: temp=temp+(rsin[d]-48);
   0239 8E 03               853 	mov	ar3,r6
   023B 7E 00               854 	mov	r6,#0x00
   023D EB                  855 	mov	a,r3
   023E 24 D0               856 	add	a,#0xD0
   0240 FB                  857 	mov	r3,a
   0241 EE                  858 	mov	a,r6
   0242 34 FF               859 	addc	a,#0xFF
   0244 FE                  860 	mov	r6,a
   0245 33                  861 	rlc	a
   0246 95 E0               862 	subb	a,acc
   0248 FD                  863 	mov	r5,a
   0249 FC                  864 	mov	r4,a
   024A A8*00               865 	mov	r0,_bp
   024C 08                  866 	inc	r0
   024D EB                  867 	mov	a,r3
   024E 26                  868 	add	a,@r0
   024F F6                  869 	mov	@r0,a
   0250 EE                  870 	mov	a,r6
   0251 08                  871 	inc	r0
   0252 36                  872 	addc	a,@r0
   0253 F6                  873 	mov	@r0,a
   0254 ED                  874 	mov	a,r5
   0255 08                  875 	inc	r0
   0256 36                  876 	addc	a,@r0
   0257 F6                  877 	mov	@r0,a
   0258 EC                  878 	mov	a,r4
   0259 08                  879 	inc	r0
   025A 36                  880 	addc	a,@r0
   025B F6                  881 	mov	@r0,a
                            882 ;	../fb_app_rs.c:118: d++;
   025C E5*00               883 	mov	a,_bp
   025E 24 07               884 	add	a,#0x07
   0260 F8                  885 	mov	r0,a
   0261 06                  886 	inc	@r0
   0262 02s01rAF            887 	ljmp	00118$
   0265                     888 00120$:
                            889 ;	../fb_app_rs.c:120: d++;
   0265 E5*00               890 	mov	a,_bp
   0267 24 07               891 	add	a,#0x07
   0269 F8                  892 	mov	r0,a
   026A E6                  893 	mov	a,@r0
   026B 04                  894 	inc	a
   026C FC                  895 	mov	r4,a
                            896 ;	../fb_app_rs.c:121: temp=temp*10;
   026D C0 07               897 	push	ar7
   026F C0 04               898 	push	ar4
   0271 C0*00               899 	push	bits
   0273 A8*00               900 	mov	r0,_bp
   0275 08                  901 	inc	r0
   0276 E6                  902 	mov	a,@r0
   0277 C0 E0               903 	push	acc
   0279 08                  904 	inc	r0
   027A E6                  905 	mov	a,@r0
   027B C0 E0               906 	push	acc
   027D 08                  907 	inc	r0
   027E E6                  908 	mov	a,@r0
   027F C0 E0               909 	push	acc
   0281 08                  910 	inc	r0
   0282 E6                  911 	mov	a,@r0
   0283 C0 E0               912 	push	acc
   0285 90 00 0A            913 	mov	dptr,#(0x0A&0x00ff)
   0288 E4                  914 	clr	a
   0289 F5 F0               915 	mov	b,a
   028B 12s00r00            916 	lcall	__mullong
   028E AE 82               917 	mov	r6,dpl
   0290 AD 83               918 	mov	r5,dph
   0292 AB F0               919 	mov	r3,b
   0294 FA                  920 	mov	r2,a
   0295 E5 81               921 	mov	a,sp
   0297 24 FC               922 	add	a,#0xfc
   0299 F5 81               923 	mov	sp,a
   029B D0*00               924 	pop	bits
   029D D0 04               925 	pop	ar4
   029F D0 07               926 	pop	ar7
   02A1 A8*00               927 	mov	r0,_bp
   02A3 08                  928 	inc	r0
   02A4 A6 06               929 	mov	@r0,ar6
   02A6 08                  930 	inc	r0
   02A7 A6 05               931 	mov	@r0,ar5
   02A9 08                  932 	inc	r0
   02AA A6 03               933 	mov	@r0,ar3
   02AC 08                  934 	inc	r0
   02AD A6 02               935 	mov	@r0,ar2
                            936 ;	../fb_app_rs.c:122: if(d<(rsinpos-1))temp=temp+(rsin[d]-48);//erste Stelle nach dem Komma
   02AF E5*00               937 	mov	a,_bp
   02B1 24 05               938 	add	a,#0x05
   02B3 F8                  939 	mov	r0,a
   02B4 E6                  940 	mov	a,@r0
   02B5 24 FF               941 	add	a,#0xFF
   02B7 FD                  942 	mov	r5,a
   02B8 08                  943 	inc	r0
   02B9 E6                  944 	mov	a,@r0
   02BA 34 FF               945 	addc	a,#0xFF
   02BC FB                  946 	mov	r3,a
   02BD 8C 02               947 	mov	ar2,r4
   02BF 7E 00               948 	mov	r6,#0x00
   02C1 C3                  949 	clr	c
   02C2 EA                  950 	mov	a,r2
   02C3 9D                  951 	subb	a,r5
   02C4 EE                  952 	mov	a,r6
   02C5 64 80               953 	xrl	a,#0x80
   02C7 8B F0               954 	mov	b,r3
   02C9 63 F0 80            955 	xrl	b,#0x80
   02CC 95 F0               956 	subb	a,b
   02CE 50 27               957 	jnc	00122$
   02D0 EC                  958 	mov	a,r4
   02D1 24r00               959 	add	a,#_rsin
   02D3 F9                  960 	mov	r1,a
   02D4 87 06               961 	mov	ar6,@r1
   02D6 7B 00               962 	mov	r3,#0x00
   02D8 EE                  963 	mov	a,r6
   02D9 24 D0               964 	add	a,#0xD0
   02DB FE                  965 	mov	r6,a
   02DC EB                  966 	mov	a,r3
   02DD 34 FF               967 	addc	a,#0xFF
   02DF FB                  968 	mov	r3,a
   02E0 33                  969 	rlc	a
   02E1 95 E0               970 	subb	a,acc
   02E3 FD                  971 	mov	r5,a
   02E4 FA                  972 	mov	r2,a
   02E5 A8*00               973 	mov	r0,_bp
   02E7 08                  974 	inc	r0
   02E8 EE                  975 	mov	a,r6
   02E9 26                  976 	add	a,@r0
   02EA F6                  977 	mov	@r0,a
   02EB EB                  978 	mov	a,r3
   02EC 08                  979 	inc	r0
   02ED 36                  980 	addc	a,@r0
   02EE F6                  981 	mov	@r0,a
   02EF ED                  982 	mov	a,r5
   02F0 08                  983 	inc	r0
   02F1 36                  984 	addc	a,@r0
   02F2 F6                  985 	mov	@r0,a
   02F3 EA                  986 	mov	a,r2
   02F4 08                  987 	inc	r0
   02F5 36                  988 	addc	a,@r0
   02F6 F6                  989 	mov	@r0,a
   02F7                     990 00122$:
                            991 ;	../fb_app_rs.c:123: d++;
   02F7 0C                  992 	inc	r4
                            993 ;	../fb_app_rs.c:124: temp=temp*10;
   02F8 C0 07               994 	push	ar7
   02FA C0 04               995 	push	ar4
   02FC C0*00               996 	push	bits
   02FE A8*00               997 	mov	r0,_bp
   0300 08                  998 	inc	r0
   0301 E6                  999 	mov	a,@r0
   0302 C0 E0              1000 	push	acc
   0304 08                 1001 	inc	r0
   0305 E6                 1002 	mov	a,@r0
   0306 C0 E0              1003 	push	acc
   0308 08                 1004 	inc	r0
   0309 E6                 1005 	mov	a,@r0
   030A C0 E0              1006 	push	acc
   030C 08                 1007 	inc	r0
   030D E6                 1008 	mov	a,@r0
   030E C0 E0              1009 	push	acc
   0310 90 00 0A           1010 	mov	dptr,#(0x0A&0x00ff)
   0313 E4                 1011 	clr	a
   0314 F5 F0              1012 	mov	b,a
   0316 12s00r00           1013 	lcall	__mullong
   0319 AE 82              1014 	mov	r6,dpl
   031B AD 83              1015 	mov	r5,dph
   031D AB F0              1016 	mov	r3,b
   031F FA                 1017 	mov	r2,a
   0320 E5 81              1018 	mov	a,sp
   0322 24 FC              1019 	add	a,#0xfc
   0324 F5 81              1020 	mov	sp,a
   0326 D0*00              1021 	pop	bits
   0328 D0 04              1022 	pop	ar4
   032A D0 07              1023 	pop	ar7
   032C A8*00              1024 	mov	r0,_bp
   032E 08                 1025 	inc	r0
   032F A6 06              1026 	mov	@r0,ar6
   0331 08                 1027 	inc	r0
   0332 A6 05              1028 	mov	@r0,ar5
   0334 08                 1029 	inc	r0
   0335 A6 03              1030 	mov	@r0,ar3
   0337 08                 1031 	inc	r0
   0338 A6 02              1032 	mov	@r0,ar2
                           1033 ;	../fb_app_rs.c:125: if(d<(rsinpos-1))temp=temp+(rsin[d]-48);//zweite Stelle nach dem Komma gen
   033A E5*00              1034 	mov	a,_bp
   033C 24 05              1035 	add	a,#0x05
   033E F8                 1036 	mov	r0,a
   033F E6                 1037 	mov	a,@r0
   0340 24 FF              1038 	add	a,#0xFF
   0342 FD                 1039 	mov	r5,a
   0343 08                 1040 	inc	r0
   0344 E6                 1041 	mov	a,@r0
   0345 34 FF              1042 	addc	a,#0xFF
   0347 FB                 1043 	mov	r3,a
   0348 8C 02              1044 	mov	ar2,r4
   034A 7E 00              1045 	mov	r6,#0x00
   034C C3                 1046 	clr	c
   034D EA                 1047 	mov	a,r2
   034E 9D                 1048 	subb	a,r5
   034F EE                 1049 	mov	a,r6
   0350 64 80              1050 	xrl	a,#0x80
   0352 8B F0              1051 	mov	b,r3
   0354 63 F0 80           1052 	xrl	b,#0x80
   0357 95 F0              1053 	subb	a,b
   0359 50 27              1054 	jnc	00161$
   035B EC                 1055 	mov	a,r4
   035C 24r00              1056 	add	a,#_rsin
   035E F9                 1057 	mov	r1,a
   035F 87 06              1058 	mov	ar6,@r1
   0361 7B 00              1059 	mov	r3,#0x00
   0363 EE                 1060 	mov	a,r6
   0364 24 D0              1061 	add	a,#0xD0
   0366 FE                 1062 	mov	r6,a
   0367 EB                 1063 	mov	a,r3
   0368 34 FF              1064 	addc	a,#0xFF
   036A FB                 1065 	mov	r3,a
   036B 33                 1066 	rlc	a
   036C 95 E0              1067 	subb	a,acc
   036E FD                 1068 	mov	r5,a
   036F FC                 1069 	mov	r4,a
   0370 A8*00              1070 	mov	r0,_bp
   0372 08                 1071 	inc	r0
   0373 EE                 1072 	mov	a,r6
   0374 26                 1073 	add	a,@r0
   0375 F6                 1074 	mov	@r0,a
   0376 EB                 1075 	mov	a,r3
   0377 08                 1076 	inc	r0
   0378 36                 1077 	addc	a,@r0
   0379 F6                 1078 	mov	@r0,a
   037A ED                 1079 	mov	a,r5
   037B 08                 1080 	inc	r0
   037C 36                 1081 	addc	a,@r0
   037D F6                 1082 	mov	@r0,a
   037E EC                 1083 	mov	a,r4
   037F 08                 1084 	inc	r0
   0380 36                 1085 	addc	a,@r0
   0381 F6                 1086 	mov	@r0,a
                           1087 ;	../fb_app_rs.c:128: while(temp > 0x07FF) {
   0382                    1088 00161$:
   0382 7E 00              1089 	mov	r6,#0x00
   0384 7D 00              1090 	mov	r5,#0x00
   0386                    1091 00125$:
   0386 A8*00              1092 	mov	r0,_bp
   0388 08                 1093 	inc	r0
   0389 08                 1094 	inc	r0
   038A E6                 1095 	mov	a,@r0
   038B 54 F8              1096 	anl	a,#0xF8
   038D 70 08              1097 	jnz	00188$
   038F 08                 1098 	inc	r0
   0390 E6                 1099 	mov	a,@r0
   0391 70 04              1100 	jnz	00188$
   0393 08                 1101 	inc	r0
   0394 E6                 1102 	mov	a,@r0
   0395 60 1C              1103 	jz	00127$
   0397                    1104 00188$:
                           1105 ;	../fb_app_rs.c:129: temp=temp>>1;
   0397 A8*00              1106 	mov	r0,_bp
   0399 08                 1107 	inc	r0
   039A 08                 1108 	inc	r0
   039B 08                 1109 	inc	r0
   039C 08                 1110 	inc	r0
   039D E6                 1111 	mov	a,@r0
   039E C3                 1112 	clr	c
   039F 13                 1113 	rrc	a
   03A0 F6                 1114 	mov	@r0,a
   03A1 18                 1115 	dec	r0
   03A2 E6                 1116 	mov	a,@r0
   03A3 13                 1117 	rrc	a
   03A4 F6                 1118 	mov	@r0,a
   03A5 18                 1119 	dec	r0
   03A6 E6                 1120 	mov	a,@r0
   03A7 13                 1121 	rrc	a
   03A8 F6                 1122 	mov	@r0,a
   03A9 18                 1123 	dec	r0
   03AA E6                 1124 	mov	a,@r0
   03AB 13                 1125 	rrc	a
   03AC F6                 1126 	mov	@r0,a
                           1127 ;	../fb_app_rs.c:130: exp=exp + (0x800);
   03AD 74 08              1128 	mov	a,#0x08
   03AF 2D                 1129 	add	a,r5
   03B0 FD                 1130 	mov	r5,a
   03B1 80 D3              1131 	sjmp	00125$
   03B3                    1132 00127$:
                           1133 ;	../fb_app_rs.c:132: if (rsin[value_pos]=='-') {
   03B3 BF 2D 3D           1134 	cjne	r7,#0x2D,00129$
                           1135 ;	../fb_app_rs.c:133: temp=(0x7FF-temp)+1;
   03B6 A8*00              1136 	mov	r0,_bp
   03B8 08                 1137 	inc	r0
   03B9 E4                 1138 	clr	a
   03BA C3                 1139 	clr	c
   03BB 96                 1140 	subb	a,@r0
   03BC F6                 1141 	mov	@r0,a
   03BD 74 08              1142 	mov	a,#0x08
   03BF 08                 1143 	inc	r0
   03C0 96                 1144 	subb	a,@r0
   03C1 F6                 1145 	mov	@r0,a
   03C2 E4                 1146 	clr	a
   03C3 08                 1147 	inc	r0
   03C4 96                 1148 	subb	a,@r0
   03C5 F6                 1149 	mov	@r0,a
   03C6 E4                 1150 	clr	a
   03C7 08                 1151 	inc	r0
   03C8 96                 1152 	subb	a,@r0
   03C9 F6                 1153 	mov	@r0,a
                           1154 ;	../fb_app_rs.c:134: eis5temp=temp+exp;
   03CA 8E 07              1155 	mov	ar7,r6
   03CC ED                 1156 	mov	a,r5
   03CD FC                 1157 	mov	r4,a
   03CE 33                 1158 	rlc	a
   03CF 95 E0              1159 	subb	a,acc
   03D1 FB                 1160 	mov	r3,a
   03D2 FA                 1161 	mov	r2,a
   03D3 A8*00              1162 	mov	r0,_bp
   03D5 08                 1163 	inc	r0
   03D6 EF                 1164 	mov	a,r7
   03D7 26                 1165 	add	a,@r0
   03D8 FF                 1166 	mov	r7,a
   03D9 EC                 1167 	mov	a,r4
   03DA 08                 1168 	inc	r0
   03DB 36                 1169 	addc	a,@r0
   03DC FC                 1170 	mov	r4,a
   03DD EB                 1171 	mov	a,r3
   03DE 08                 1172 	inc	r0
   03DF 36                 1173 	addc	a,@r0
   03E0 EA                 1174 	mov	a,r2
   03E1 08                 1175 	inc	r0
   03E2 36                 1176 	addc	a,@r0
   03E3 8C 05              1177 	mov	ar5,r4
                           1178 ;	../fb_app_rs.c:135: eis5temp+=0x8000;
   03E5 8F 02              1179 	mov	ar2,r7
   03E7 8D 06              1180 	mov	ar6,r5
   03E9 74 80              1181 	mov	a,#0x80
   03EB 2E                 1182 	add	a,r6
   03EC FE                 1183 	mov	r6,a
   03ED 8A 07              1184 	mov	ar7,r2
   03EF 8E 05              1185 	mov	ar5,r6
   03F1 80 1C              1186 	sjmp	00130$
   03F3                    1187 00129$:
                           1188 ;	../fb_app_rs.c:137: else eis5temp=temp+exp;
   03F3 ED                 1189 	mov	a,r5
   03F4 33                 1190 	rlc	a
   03F5 95 E0              1191 	subb	a,acc
   03F7 FF                 1192 	mov	r7,a
   03F8 FC                 1193 	mov	r4,a
   03F9 A8*00              1194 	mov	r0,_bp
   03FB 08                 1195 	inc	r0
   03FC EE                 1196 	mov	a,r6
   03FD 26                 1197 	add	a,@r0
   03FE FE                 1198 	mov	r6,a
   03FF ED                 1199 	mov	a,r5
   0400 08                 1200 	inc	r0
   0401 36                 1201 	addc	a,@r0
   0402 FA                 1202 	mov	r2,a
   0403 EF                 1203 	mov	a,r7
   0404 08                 1204 	inc	r0
   0405 36                 1205 	addc	a,@r0
   0406 FB                 1206 	mov	r3,a
   0407 EC                 1207 	mov	a,r4
   0408 08                 1208 	inc	r0
   0409 36                 1209 	addc	a,@r0
   040A FC                 1210 	mov	r4,a
   040B 8E 07              1211 	mov	ar7,r6
   040D 8A 05              1212 	mov	ar5,r2
   040F                    1213 00130$:
                           1214 ;	../fb_app_rs.c:138: telegramm[8]=eis5temp>>8;
   040F 8D 06              1215 	mov	ar6,r5
   0411 8E*08              1216 	mov	(_telegramm + 0x0008),r6
                           1217 ;	../fb_app_rs.c:139: telegramm[9]=eis5temp;		
   0413 8F 03              1218 	mov	ar3,r7
   0415 8B*09              1219 	mov	(_telegramm + 0x0009),r3
                           1220 ;	../fb_app_rs.c:140: break;
   0417 02s05r42           1221 	ljmp	00141$
                           1222 ;	../fb_app_rs.c:141: case 6:// EIS 6
   041A                    1223 00131$:
                           1224 ;	../fb_app_rs.c:142: tel_header(groupadr, 2);
   041A C0 05              1225 	push	ar5
   041C C0*00              1226 	push	bits
   041E 74 02              1227 	mov	a,#0x02
   0420 C0 E0              1228 	push	acc
   0422 85*1F 82           1229 	mov	dpl,_groupadr
   0425 85*20 83           1230 	mov	dph,(_groupadr + 1)
   0428 12s08r8C           1231 	lcall	_tel_header
   042B 15 81              1232 	dec	sp
   042D D0*00              1233 	pop	bits
   042F D0 05              1234 	pop	ar5
                           1235 ;	../fb_app_rs.c:143: telegramm[7]=0x80;
   0431 75*07 80           1236 	mov	(_telegramm + 0x0007),#0x80
                           1237 ;	../fb_app_rs.c:145: value=0;
   0434 7C 00              1238 	mov	r4,#0x00
   0436 7F 00              1239 	mov	r7,#0x00
                           1240 ;	../fb_app_rs.c:147: while(d<(rsinpos-1)) {
   0438 8D 06              1241 	mov	ar6,r5
   043A                    1242 00132$:
   043A C0 04              1243 	push	ar4
   043C C0 07              1244 	push	ar7
   043E AA*1E              1245 	mov	r2,_rsinpos
   0440 7B 00              1246 	mov	r3,#0x00
   0442 1A                 1247 	dec	r2
   0443 BA FF 01           1248 	cjne	r2,#0xFF,00191$
   0446 1B                 1249 	dec	r3
   0447                    1250 00191$:
   0447 8E 04              1251 	mov	ar4,r6
   0449 7F 00              1252 	mov	r7,#0x00
   044B C3                 1253 	clr	c
   044C EC                 1254 	mov	a,r4
   044D 9A                 1255 	subb	a,r2
   044E EF                 1256 	mov	a,r7
   044F 64 80              1257 	xrl	a,#0x80
   0451 8B F0              1258 	mov	b,r3
   0453 63 F0 80           1259 	xrl	b,#0x80
   0456 95 F0              1260 	subb	a,b
   0458 D0 07              1261 	pop	ar7
   045A D0 04              1262 	pop	ar4
   045C 50 37              1263 	jnc	00134$
                           1264 ;	../fb_app_rs.c:148: value*=10;
   045E C0 06              1265 	push	ar6
   0460 C0*00              1266 	push	bits
   0462 C0 04              1267 	push	ar4
   0464 C0 07              1268 	push	ar7
   0466 90 00 0A           1269 	mov	dptr,#0x000A
   0469 12s00r00           1270 	lcall	__mulint
   046C AA 82              1271 	mov	r2,dpl
   046E AB 83              1272 	mov	r3,dph
   0470 15 81              1273 	dec	sp
   0472 15 81              1274 	dec	sp
   0474 D0*00              1275 	pop	bits
   0476 D0 06              1276 	pop	ar6
   0478 8A 04              1277 	mov	ar4,r2
   047A 8B 07              1278 	mov	ar7,r3
                           1279 ;	../fb_app_rs.c:149: value+=rsin[d]-48;
   047C EE                 1280 	mov	a,r6
   047D 24r00              1281 	add	a,#_rsin
   047F F9                 1282 	mov	r1,a
   0480 87 03              1283 	mov	ar3,@r1
   0482 7A 00              1284 	mov	r2,#0x00
   0484 EB                 1285 	mov	a,r3
   0485 24 D0              1286 	add	a,#0xD0
   0487 FB                 1287 	mov	r3,a
   0488 EA                 1288 	mov	a,r2
   0489 34 FF              1289 	addc	a,#0xFF
   048B FA                 1290 	mov	r2,a
   048C EB                 1291 	mov	a,r3
   048D 2C                 1292 	add	a,r4
   048E FC                 1293 	mov	r4,a
   048F EA                 1294 	mov	a,r2
   0490 3F                 1295 	addc	a,r7
   0491 FF                 1296 	mov	r7,a
                           1297 ;	../fb_app_rs.c:150: d++;
   0492 0E                 1298 	inc	r6
   0493 80 A5              1299 	sjmp	00132$
   0495                    1300 00134$:
                           1301 ;	../fb_app_rs.c:153: telegramm[8]=value;
   0495 8C*08              1302 	mov	(_telegramm + 0x0008),r4
                           1303 ;	../fb_app_rs.c:154: break;
   0497 02s05r42           1304 	ljmp	00141$
                           1305 ;	../fb_app_rs.c:156: case 14: // EIS 15 auf voreingestellter GA
   049A                    1306 00135$:
                           1307 ;	../fb_app_rs.c:157: groupadr=((unsigned int)sga_h<<8)+sga_l; //
   049A 90 1C F8           1308 	mov	dptr,#_sga_h
   049D E4                 1309 	clr	a
   049E 93                 1310 	movc	a,@a+dptr
   049F FE                 1311 	mov	r6,a
   04A0 7F 00              1312 	mov	r7,#0x00
   04A2 90 1C F9           1313 	mov	dptr,#_sga_l
   04A5 E4                 1314 	clr	a
   04A6 93                 1315 	movc	a,@a+dptr
   04A7 FC                 1316 	mov	r4,a
   04A8 7B 00              1317 	mov	r3,#0x00
   04AA 2F                 1318 	add	a,r7
   04AB F5*1F              1319 	mov	_groupadr,a
   04AD EB                 1320 	mov	a,r3
   04AE 3E                 1321 	addc	a,r6
   04AF F5*20              1322 	mov	(_groupadr + 1),a
                           1323 ;	../fb_app_rs.c:158: value_pos=0;
   04B1 7D 00              1324 	mov	r5,#0x00
                           1325 ;	../fb_app_rs.c:161: case 15: // EIS 15
   04B3                    1326 00136$:
                           1327 ;	../fb_app_rs.c:162: tel_header(groupadr,15); //15
   04B3 C0 05              1328 	push	ar5
   04B5 C0*00              1329 	push	bits
   04B7 74 0F              1330 	mov	a,#0x0F
   04B9 C0 E0              1331 	push	acc
   04BB 85*1F 82           1332 	mov	dpl,_groupadr
   04BE 85*20 83           1333 	mov	dph,(_groupadr + 1)
   04C1 12s08r8C           1334 	lcall	_tel_header
   04C4 15 81              1335 	dec	sp
   04C6 D0*00              1336 	pop	bits
   04C8 D0 05              1337 	pop	ar5
                           1338 ;	../fb_app_rs.c:163: telegramm[7]=0x80;
   04CA 75*07 80           1339 	mov	(_telegramm + 0x0007),#0x80
                           1340 ;	../fb_app_rs.c:164: for(d=8;d<22;d++){
   04CD 7F 08              1341 	mov	r7,#0x08
   04CF                    1342 00144$:
   04CF BF 16 00           1343 	cjne	r7,#0x16,00193$
   04D2                    1344 00193$:
   04D2 50 6E              1345 	jnc	00141$
                           1346 ;	../fb_app_rs.c:165: if((value_pos+d-8)>=(rsinpos-1)) telegramm[d]=0x00;
   04D4 8D 04              1347 	mov	ar4,r5
   04D6 7E 00              1348 	mov	r6,#0x00
   04D8 8F 02              1349 	mov	ar2,r7
   04DA 7B 00              1350 	mov	r3,#0x00
   04DC EA                 1351 	mov	a,r2
   04DD 2C                 1352 	add	a,r4
   04DE FC                 1353 	mov	r4,a
   04DF EB                 1354 	mov	a,r3
   04E0 3E                 1355 	addc	a,r6
   04E1 FE                 1356 	mov	r6,a
   04E2 EC                 1357 	mov	a,r4
   04E3 24 F8              1358 	add	a,#0xF8
   04E5 FC                 1359 	mov	r4,a
   04E6 EE                 1360 	mov	a,r6
   04E7 34 FF              1361 	addc	a,#0xFF
   04E9 FE                 1362 	mov	r6,a
   04EA AA*1E              1363 	mov	r2,_rsinpos
   04EC 7B 00              1364 	mov	r3,#0x00
   04EE 1A                 1365 	dec	r2
   04EF BA FF 01           1366 	cjne	r2,#0xFF,00195$
   04F2 1B                 1367 	dec	r3
   04F3                    1368 00195$:
   04F3 C3                 1369 	clr	c
   04F4 EC                 1370 	mov	a,r4
   04F5 9A                 1371 	subb	a,r2
   04F6 EE                 1372 	mov	a,r6
   04F7 64 80              1373 	xrl	a,#0x80
   04F9 8B F0              1374 	mov	b,r3
   04FB 63 F0 80           1375 	xrl	b,#0x80
   04FE 95 F0              1376 	subb	a,b
   0500 40 08              1377 	jc	00138$
   0502 EF                 1378 	mov	a,r7
   0503 24r00              1379 	add	a,#_telegramm
   0505 F8                 1380 	mov	r0,a
   0506 76 00              1381 	mov	@r0,#0x00
   0508 80 0F              1382 	sjmp	00146$
   050A                    1383 00138$:
                           1384 ;	../fb_app_rs.c:166: else telegramm[d]=rsin[(value_pos+d-8)];
   050A EF                 1385 	mov	a,r7
   050B 24r00              1386 	add	a,#_telegramm
   050D F9                 1387 	mov	r1,a
   050E EF                 1388 	mov	a,r7
   050F 2D                 1389 	add	a,r5
   0510 24 F8              1390 	add	a,#0xF8
   0512 24r00              1391 	add	a,#_rsin
   0514 F8                 1392 	mov	r0,a
   0515 86 06              1393 	mov	ar6,@r0
   0517 A7 06              1394 	mov	@r1,ar6
   0519                    1395 00146$:
                           1396 ;	../fb_app_rs.c:164: for(d=8;d<22;d++){
   0519 0F                 1397 	inc	r7
                           1398 ;	../fb_app_rs.c:169: case 16:
   051A 80 B3              1399 	sjmp	00144$
   051C                    1400 00140$:
                           1401 ;	../fb_app_rs.c:170: groupadr=convert_adr(5);
   051C 75 82 05           1402 	mov	dpl,#0x05
   051F C0*00              1403 	push	bits
   0521 12s08rBE           1404 	lcall	_convert_adr
   0524 85 82*1F           1405 	mov	_groupadr,dpl
   0527 85 83*20           1406 	mov	(_groupadr + 1),dph
   052A D0*00              1407 	pop	bits
                           1408 ;	../fb_app_rs.c:171: tel_header(groupadr, 1);
   052C C0*00              1409 	push	bits
   052E 74 01              1410 	mov	a,#0x01
   0530 C0 E0              1411 	push	acc
   0532 85*1F 82           1412 	mov	dpl,_groupadr
   0535 85*20 83           1413 	mov	dph,(_groupadr + 1)
   0538 12s08r8C           1414 	lcall	_tel_header
   053B 15 81              1415 	dec	sp
   053D D0*00              1416 	pop	bits
                           1417 ;	../fb_app_rs.c:172: telegramm[7]=0x00;
   053F 75*07 00           1418 	mov	(_telegramm + 0x0007),#0x00
                           1419 ;	../fb_app_rs.c:174: }
   0542                    1420 00141$:
                           1421 ;	../fb_app_rs.c:175: if(repeatflag) telegramm[0]&=0xDF;		// Wiederholungsbit lschen fr Wiederholtelegramm
   0542 30*00 06           1422 	jnb	b0,00143$
   0545 74 DF              1423 	mov	a,#0xDF
   0547 55*00              1424 	anl	a,_telegramm
   0549 F5*00              1425 	mov	_telegramm,a
   054B                    1426 00143$:
                           1427 ;	../fb_app_rs.c:176: return(build_ok);
   054B D3                 1428 	setb	c
   054C 85*00 81           1429 	mov	sp,_bp
   054F D0*00              1430 	pop	_bp
   0551 22                 1431 	ret
                           1432 ;------------------------------------------------------------
                           1433 ;Allocation info for local variables in function 'gapos_in_gat'
                           1434 ;------------------------------------------------------------
                           1435 ;gal                       Allocated to stack - _bp -3
                           1436 ;gah                       Allocated to stack - _bp +1
                           1437 ;ga_position               Allocated to registers r6 
                           1438 ;n                         Allocated to stack - _bp +2
                           1439 ;------------------------------------------------------------
                           1440 ;	../fb_app_rs.c:181: unsigned char gapos_in_gat(unsigned char gah, unsigned char gal)
                           1441 ;	-----------------------------------------
                           1442 ;	 function gapos_in_gat
                           1443 ;	-----------------------------------------
   0552                    1444 _gapos_in_gat:
   0552 C0*00              1445 	push	_bp
   0554 85 81*00           1446 	mov	_bp,sp
   0557 C0 82              1447 	push	dpl
   0559 05 81              1448 	inc	sp
                           1449 ;	../fb_app_rs.c:185: ga_position=0xFF; 			// default return Wert 0xFF = nicht gefunden
   055B 7E FF              1450 	mov	r6,#0xFF
                           1451 ;	../fb_app_rs.c:187: while(ga_db[n].ga==((gah<<8)+gal) && n<=62){
   055D A8*00              1452 	mov	r0,_bp
   055F 08                 1453 	inc	r0
   0560 08                 1454 	inc	r0
   0561 76 00              1455 	mov	@r0,#0x00
   0563                    1456 00102$:
   0563 C0 06              1457 	push	ar6
   0565 A8*00              1458 	mov	r0,_bp
   0567 08                 1459 	inc	r0
   0568 08                 1460 	inc	r0
   0569 E6                 1461 	mov	a,@r0
   056A 25 E0              1462 	add	a,acc
   056C 25 E0              1463 	add	a,acc
   056E F5 82              1464 	mov	dpl,a
   0570 75 83 1D           1465 	mov	dph,#(_ga_db >> 8)
   0573 E4                 1466 	clr	a
   0574 93                 1467 	movc	a,@a+dptr
   0575 FB                 1468 	mov	r3,a
   0576 A3                 1469 	inc	dptr
   0577 E4                 1470 	clr	a
   0578 93                 1471 	movc	a,@a+dptr
   0579 FC                 1472 	mov	r4,a
   057A A8*00              1473 	mov	r0,_bp
   057C 08                 1474 	inc	r0
   057D 86 02              1475 	mov	ar2,@r0
   057F 8A 06              1476 	mov	ar6,r2
   0581 7A 00              1477 	mov	r2,#0x00
   0583 E5*00              1478 	mov	a,_bp
   0585 24 FD              1479 	add	a,#0xfd
   0587 F8                 1480 	mov	r0,a
   0588 86 05              1481 	mov	ar5,@r0
   058A 7F 00              1482 	mov	r7,#0x00
   058C ED                 1483 	mov	a,r5
   058D 2A                 1484 	add	a,r2
   058E FA                 1485 	mov	r2,a
   058F EF                 1486 	mov	a,r7
   0590 3E                 1487 	addc	a,r6
   0591 FE                 1488 	mov	r6,a
   0592 EB                 1489 	mov	a,r3
   0593 B5 02 06           1490 	cjne	a,ar2,00115$
   0596 EC                 1491 	mov	a,r4
   0597 B5 06 02           1492 	cjne	a,ar6,00115$
   059A 80 04              1493 	sjmp	00116$
   059C                    1494 00115$:
   059C D0 06              1495 	pop	ar6
   059E 80 12              1496 	sjmp	00114$
   05A0                    1497 00116$:
   05A0 D0 06              1498 	pop	ar6
   05A2 A8*00              1499 	mov	r0,_bp
   05A4 08                 1500 	inc	r0
   05A5 08                 1501 	inc	r0
   05A6 E6                 1502 	mov	a,@r0
   05A7 24 C1              1503 	add	a,#0xff - 0x3E
   05A9 40 07              1504 	jc	00114$
                           1505 ;	../fb_app_rs.c:188: n++;
   05AB A8*00              1506 	mov	r0,_bp
   05AD 08                 1507 	inc	r0
   05AE 08                 1508 	inc	r0
   05AF 06                 1509 	inc	@r0
   05B0 80 B1              1510 	sjmp	00102$
   05B2                    1511 00114$:
   05B2 A8*00              1512 	mov	r0,_bp
   05B4 08                 1513 	inc	r0
   05B5 08                 1514 	inc	r0
   05B6 86 07              1515 	mov	ar7,@r0
                           1516 ;	../fb_app_rs.c:190: if(n<62|| !filtermode)ga_position=n;// wenn GA gefunden oder kein filtermode aktiv ist...
   05B8 A8*00              1517 	mov	r0,_bp
   05BA 08                 1518 	inc	r0
   05BB 08                 1519 	inc	r0
   05BC B6 3E 00           1520 	cjne	@r0,#0x3E,00118$
   05BF                    1521 00118$:
   05BF 40 03              1522 	jc	00105$
   05C1 20*00 02           1523 	jb	_filtermode,00106$
   05C4                    1524 00105$:
   05C4 8F 06              1525 	mov	ar6,r7
   05C6                    1526 00106$:
                           1527 ;	../fb_app_rs.c:191: return (ga_position);						// wird geackt
   05C6 8E 82              1528 	mov	dpl,r6
   05C8 85*00 81           1529 	mov	sp,_bp
   05CB D0*00              1530 	pop	_bp
   05CD 22                 1531 	ret
                           1532 ;------------------------------------------------------------
                           1533 ;Allocation info for local variables in function 'send_obj_done'
                           1534 ;------------------------------------------------------------
                           1535 ;success                   Allocated to registers 
                           1536 ;objno                     Allocated to registers 
                           1537 ;------------------------------------------------------------
                           1538 ;	../fb_app_rs.c:194: void send_obj_done(unsigned char objno, __bit success)
                           1539 ;	-----------------------------------------
                           1540 ;	 function send_obj_done
                           1541 ;	-----------------------------------------
   05CE                    1542 _send_obj_done:
                           1543 ;	../fb_app_rs.c:197: success;
   05CE 22                 1544 	ret
                           1545 ;------------------------------------------------------------
                           1546 ;Allocation info for local variables in function 'write_value_req'
                           1547 ;------------------------------------------------------------
                           1548 ;length                    Allocated to registers r4 
                           1549 ;n                         Allocated to stack - _bp +1
                           1550 ;ga                        Allocated to stack - _bp +2
                           1551 ;val                       Allocated to registers r5 r6 
                           1552 ;------------------------------------------------------------
                           1553 ;	../fb_app_rs.c:201: void write_value_req(void)
                           1554 ;	-----------------------------------------
                           1555 ;	 function write_value_req
                           1556 ;	-----------------------------------------
   05CF                    1557 _write_value_req:
   05CF C0*00              1558 	push	_bp
   05D1 85 81*00           1559 	mov	_bp,sp
   05D4 05 81              1560 	inc	sp
   05D6 05 81              1561 	inc	sp
   05D8 05 81              1562 	inc	sp
                           1563 ;	../fb_app_rs.c:203: unsigned char length,n=0;
   05DA A8*00              1564 	mov	r0,_bp
   05DC 08                 1565 	inc	r0
   05DD 76 00              1566 	mov	@r0,#0x00
                           1567 ;	../fb_app_rs.c:205: unsigned int val=0;
   05DF 7D 00              1568 	mov	r5,#0x00
   05E1 7E 00              1569 	mov	r6,#0x00
                           1570 ;	../fb_app_rs.c:207: eibledcount=0xff;// EIBLED lang einschalten
   05E3 75*24 FF           1571 	mov	_eibledcount,#0xFF
                           1572 ;	../fb_app_rs.c:208: length=telegramm[5]&0x0F;
   05E6 74 0F              1573 	mov	a,#0x0F
   05E8 55*05              1574 	anl	a,(_telegramm + 0x0005)
                           1575 ;	../fb_app_rs.c:209: if (length<=15 )	{// wenn ein Telegramm reinkommt..
   05EA FC                 1576 	mov  r4,a
   05EB 24 F0              1577 	add	a,#0xff - 0x0F
   05ED 50 03              1578 	jnc	00153$
   05EF 02s07rD2           1579 	ljmp	00134$
   05F2                    1580 00153$:
                           1581 ;	../fb_app_rs.c:210: if(length==1)val=telegramm[7] & 0x3F;
   05F2 BC 01 08           1582 	cjne	r4,#0x01,00102$
   05F5 74 3F              1583 	mov	a,#0x3F
   05F7 55*07              1584 	anl	a,(_telegramm + 0x0007)
   05F9 FB                 1585 	mov	r3,a
   05FA FD                 1586 	mov	r5,a
   05FB 7E 00              1587 	mov	r6,#0x00
   05FD                    1588 00102$:
                           1589 ;	../fb_app_rs.c:211: if(length==2)val=telegramm[8] ;
   05FD BC 02 04           1590 	cjne	r4,#0x02,00104$
   0600 AD*08              1591 	mov	r5,(_telegramm + 0x0008)
   0602 7E 00              1592 	mov	r6,#0x00
   0604                    1593 00104$:
                           1594 ;	../fb_app_rs.c:212: if(length==3)val=256*telegramm[8]+telegramm[9];
   0604 BC 03 16           1595 	cjne	r4,#0x03,00106$
   0607 C0 04              1596 	push	ar4
   0609 AB*08              1597 	mov	r3,(_telegramm + 0x0008)
   060B 7A 00              1598 	mov	r2,#0x00
   060D AC*09              1599 	mov	r4,(_telegramm + 0x0009)
   060F 7F 00              1600 	mov	r7,#0x00
   0611 EC                 1601 	mov	a,r4
   0612 2A                 1602 	add	a,r2
   0613 FA                 1603 	mov	r2,a
   0614 EF                 1604 	mov	a,r7
   0615 3B                 1605 	addc	a,r3
   0616 FB                 1606 	mov	r3,a
   0617 8A 05              1607 	mov	ar5,r2
   0619 8B 06              1608 	mov	ar6,r3
                           1609 ;	../fb_app_rs.c:251: save_ga(ga,val);						// GA mit Wert speichern
   061B D0 04              1610 	pop	ar4
                           1611 ;	../fb_app_rs.c:212: if(length==3)val=256*telegramm[8]+telegramm[9];
   061D                    1612 00106$:
                           1613 ;	../fb_app_rs.c:213: ga=256*telegramm[3]+telegramm[4];
   061D C0 05              1614 	push	ar5
   061F C0 06              1615 	push	ar6
   0621 AF*03              1616 	mov	r7,(_telegramm + 0x0003)
   0623 8F 02              1617 	mov	ar2,r7
   0625 8A 03              1618 	mov	ar3,r2
   0627 7A 00              1619 	mov	r2,#0x00
   0629 AD*04              1620 	mov	r5,(_telegramm + 0x0004)
   062B 7E 00              1621 	mov	r6,#0x00
   062D ED                 1622 	mov	a,r5
   062E 2A                 1623 	add	a,r2
   062F FA                 1624 	mov	r2,a
   0630 EE                 1625 	mov	a,r6
   0631 3B                 1626 	addc	a,r3
   0632 FB                 1627 	mov	r3,a
   0633 A8*00              1628 	mov	r0,_bp
   0635 08                 1629 	inc	r0
   0636 08                 1630 	inc	r0
   0637 A6 02              1631 	mov	@r0,ar2
   0639 08                 1632 	inc	r0
   063A A6 03              1633 	mov	@r0,ar3
                           1634 ;	../fb_app_rs.c:214: if(filtermode){
   063C D0 06              1635 	pop	ar6
   063E D0 05              1636 	pop	ar5
   0640 30*00 3D           1637 	jnb	_filtermode,00110$
                           1638 ;	../fb_app_rs.c:215: for(n=0;n<=61;n++) {						// Wert der GA aus Flash lesen
   0643 A8*00              1639 	mov	r0,_bp
   0645 08                 1640 	inc	r0
   0646 76 00              1641 	mov	@r0,#0x00
   0648                    1642 00126$:
   0648 A8*00              1643 	mov	r0,_bp
   064A 08                 1644 	inc	r0
   064B E6                 1645 	mov	a,@r0
   064C 24 C2              1646 	add	a,#0xff - 0x3D
   064E 40 30              1647 	jc	00110$
                           1648 ;	../fb_app_rs.c:216: if(ga_db[n].ga==ga) {
   0650 A8*00              1649 	mov	r0,_bp
   0652 08                 1650 	inc	r0
   0653 E6                 1651 	mov	a,@r0
   0654 25 E0              1652 	add	a,acc
   0656 25 E0              1653 	add	a,acc
   0658 F5 82              1654 	mov	dpl,a
   065A 75 83 1D           1655 	mov	dph,#(_ga_db >> 8)
   065D E4                 1656 	clr	a
   065E 93                 1657 	movc	a,@a+dptr
   065F FA                 1658 	mov	r2,a
   0660 A3                 1659 	inc	dptr
   0661 E4                 1660 	clr	a
   0662 93                 1661 	movc	a,@a+dptr
   0663 FB                 1662 	mov	r3,a
   0664 A8*00              1663 	mov	r0,_bp
   0666 08                 1664 	inc	r0
   0667 08                 1665 	inc	r0
   0668 E6                 1666 	mov	a,@r0
   0669 B5 02 07           1667 	cjne	a,ar2,00162$
   066C 08                 1668 	inc	r0
   066D E6                 1669 	mov	a,@r0
   066E B5 03 02           1670 	cjne	a,ar3,00162$
   0671 80 02              1671 	sjmp	00163$
   0673                    1672 00162$:
   0673 80 05              1673 	sjmp	00128$
   0675                    1674 00163$:
                           1675 ;	../fb_app_rs.c:217: n=63;
   0675 A8*00              1676 	mov	r0,_bp
   0677 08                 1677 	inc	r0
   0678 76 3F              1678 	mov	@r0,#0x3F
   067A                    1679 00128$:
                           1680 ;	../fb_app_rs.c:215: for(n=0;n<=61;n++) {						// Wert der GA aus Flash lesen
   067A A8*00              1681 	mov	r0,_bp
   067C 08                 1682 	inc	r0
   067D 06                 1683 	inc	@r0
   067E 80 C8              1684 	sjmp	00126$
   0680                    1685 00110$:
                           1686 ;	../fb_app_rs.c:221: if ((n>=63 || !filtermode)) {
   0680 A8*00              1687 	mov	r0,_bp
   0682 08                 1688 	inc	r0
   0683 B6 3F 00           1689 	cjne	@r0,#0x3F,00164$
   0686                    1690 00164$:
   0686 50 06              1691 	jnc	00121$
   0688 30*00 03           1692 	jnb	_filtermode,00166$
   068B 02s07rD2           1693 	ljmp	00134$
   068E                    1694 00166$:
   068E                    1695 00121$:
                           1696 ;	../fb_app_rs.c:222: if(!tel_sent){
   068E 30*00 03           1697 	jnb	_tel_sent,00167$
   0691 02s07rBE           1698 	ljmp	00120$
   0694                    1699 00167$:
                           1700 ;	../fb_app_rs.c:223: rs_send_dec(telegramm[3]>>3);			// GA senden
   0694 EF                 1701 	mov	a,r7
   0695 C4                 1702 	swap	a
   0696 23                 1703 	rl	a
   0697 54 1F              1704 	anl	a,#0x1F
   0699 FF                 1705 	mov	r7,a
   069A 7B 00              1706 	mov	r3,#0x00
   069C 8F 82              1707 	mov	dpl,r7
   069E 8B 83              1708 	mov	dph,r3
   06A0 C0 06              1709 	push	ar6
   06A2 C0 05              1710 	push	ar5
   06A4 C0 04              1711 	push	ar4
   06A6 12s00r00           1712 	lcall	_rs_send_dec
                           1713 ;	../fb_app_rs.c:224: rs_send('/');
   06A9 75 82 2F           1714 	mov	dpl,#0x2F
   06AC 12s00r00           1715 	lcall	_rs_send
                           1716 ;	../fb_app_rs.c:225: rs_send_dec(telegramm[3] & 0x07);
   06AF 74 07              1717 	mov	a,#0x07
   06B1 55*03              1718 	anl	a,(_telegramm + 0x0003)
   06B3 FF                 1719 	mov	r7,a
   06B4 7B 00              1720 	mov	r3,#0x00
   06B6 8F 82              1721 	mov	dpl,r7
   06B8 8B 83              1722 	mov	dph,r3
   06BA 12s00r00           1723 	lcall	_rs_send_dec
                           1724 ;	../fb_app_rs.c:226: rs_send('/');
   06BD 75 82 2F           1725 	mov	dpl,#0x2F
   06C0 12s00r00           1726 	lcall	_rs_send
                           1727 ;	../fb_app_rs.c:227: rs_send_dec(telegramm[4]);
   06C3 AB*04              1728 	mov	r3,(_telegramm + 0x0004)
   06C5 7F 00              1729 	mov	r7,#0x00
   06C7 8B 82              1730 	mov	dpl,r3
   06C9 8F 83              1731 	mov	dph,r7
   06CB 12s00r00           1732 	lcall	_rs_send_dec
                           1733 ;	../fb_app_rs.c:228: rs_send('=');
   06CE 75 82 3D           1734 	mov	dpl,#0x3D
   06D1 12s00r00           1735 	lcall	_rs_send
   06D4 D0 04              1736 	pop	ar4
   06D6 D0 05              1737 	pop	ar5
   06D8 D0 06              1738 	pop	ar6
                           1739 ;	../fb_app_rs.c:229: if (length<=3)	rs_send_dec(val);		// Value senden
   06DA EC                 1740 	mov	a,r4
   06DB 24 FC              1741 	add	a,#0xff - 0x03
   06DD 40 13              1742 	jc	00112$
   06DF 8D 82              1743 	mov	dpl,r5
   06E1 8E 83              1744 	mov	dph,r6
   06E3 C0 06              1745 	push	ar6
   06E5 C0 05              1746 	push	ar5
   06E7 C0 04              1747 	push	ar4
   06E9 12s00r00           1748 	lcall	_rs_send_dec
   06EC D0 04              1749 	pop	ar4
   06EE D0 05              1750 	pop	ar5
   06F0 D0 06              1751 	pop	ar6
   06F2                    1752 00112$:
                           1753 ;	../fb_app_rs.c:230: if(length==4){
   06F2 BC 04 6F           1754 	cjne	r4,#0x04,00116$
                           1755 ;	../fb_app_rs.c:231: n='.';  
   06F5 A8*00              1756 	mov	r0,_bp
   06F7 08                 1757 	inc	r0
   06F8 76 2E              1758 	mov	@r0,#0x2E
                           1759 ;	../fb_app_rs.c:232: if(telegramm[8]>31){// time
   06FA E5*08              1760 	mov	a,(_telegramm + 0x0008)
   06FC FF                 1761 	mov	r7,a
   06FD 24 E0              1762 	add	a,#0xff - 0x1F
   06FF 50 23              1763 	jnc	00114$
                           1764 ;	../fb_app_rs.c:233: rs_send((telegramm[8]>>5)+'0');
   0701 EF                 1765 	mov	a,r7
   0702 C4                 1766 	swap	a
   0703 03                 1767 	rr	a
   0704 54 07              1768 	anl	a,#0x07
   0706 24 30              1769 	add	a,#0x30
   0708 F5 82              1770 	mov	dpl,a
   070A C0 06              1771 	push	ar6
   070C C0 05              1772 	push	ar5
   070E C0 04              1773 	push	ar4
   0710 12s00r00           1774 	lcall	_rs_send
                           1775 ;	../fb_app_rs.c:234: rs_send(',');
   0713 75 82 2C           1776 	mov	dpl,#0x2C
   0716 12s00r00           1777 	lcall	_rs_send
   0719 D0 04              1778 	pop	ar4
   071B D0 05              1779 	pop	ar5
   071D D0 06              1780 	pop	ar6
                           1781 ;	../fb_app_rs.c:235: n=':';
   071F A8*00              1782 	mov	r0,_bp
   0721 08                 1783 	inc	r0
   0722 76 3A              1784 	mov	@r0,#0x3A
   0724                    1785 00114$:
                           1786 ;	../fb_app_rs.c:237: rs_send_dec(telegramm[8]&0x1F);
   0724 74 1F              1787 	mov	a,#0x1F
   0726 55*08              1788 	anl	a,(_telegramm + 0x0008)
   0728 FF                 1789 	mov	r7,a
   0729 7B 00              1790 	mov	r3,#0x00
   072B 8F 82              1791 	mov	dpl,r7
   072D 8B 83              1792 	mov	dph,r3
   072F C0 06              1793 	push	ar6
   0731 C0 05              1794 	push	ar5
   0733 C0 04              1795 	push	ar4
   0735 12s00r00           1796 	lcall	_rs_send_dec
                           1797 ;	../fb_app_rs.c:238: rs_send(n);
   0738 A8*00              1798 	mov	r0,_bp
   073A 08                 1799 	inc	r0
   073B 86 82              1800 	mov	dpl,@r0
   073D 12s00r00           1801 	lcall	_rs_send
                           1802 ;	../fb_app_rs.c:239: rs_send_dec(telegramm[9]);
   0740 AB*09              1803 	mov	r3,(_telegramm + 0x0009)
   0742 7F 00              1804 	mov	r7,#0x00
   0744 8B 82              1805 	mov	dpl,r3
   0746 8F 83              1806 	mov	dph,r7
   0748 12s00r00           1807 	lcall	_rs_send_dec
                           1808 ;	../fb_app_rs.c:240: rs_send(n);
   074B A8*00              1809 	mov	r0,_bp
   074D 08                 1810 	inc	r0
   074E 86 82              1811 	mov	dpl,@r0
   0750 12s00r00           1812 	lcall	_rs_send
                           1813 ;	../fb_app_rs.c:241: rs_send_dec(telegramm[10]);
   0753 AB*0A              1814 	mov	r3,(_telegramm + 0x000a)
   0755 7F 00              1815 	mov	r7,#0x00
   0757 8B 82              1816 	mov	dpl,r3
   0759 8F 83              1817 	mov	dph,r7
   075B 12s00r00           1818 	lcall	_rs_send_dec
   075E D0 04              1819 	pop	ar4
   0760 D0 05              1820 	pop	ar5
   0762 D0 06              1821 	pop	ar6
   0764                    1822 00116$:
                           1823 ;	../fb_app_rs.c:243: if(length>4){
   0764 EC                 1824 	mov	a,r4
   0765 24 FB              1825 	add	a,#0xff - 0x04
   0767 50 44              1826 	jnc	00118$
                           1827 ;	../fb_app_rs.c:244: for(n=8;n <= length+6;n++){
   0769 7F 08              1828 	mov	r7,#0x08
   076B                    1829 00130$:
   076B C0 05              1830 	push	ar5
   076D C0 06              1831 	push	ar6
   076F 8C 02              1832 	mov	ar2,r4
   0771 7B 00              1833 	mov	r3,#0x00
   0773 74 06              1834 	mov	a,#0x06
   0775 2A                 1835 	add	a,r2
   0776 FA                 1836 	mov	r2,a
   0777 E4                 1837 	clr	a
   0778 3B                 1838 	addc	a,r3
   0779 FB                 1839 	mov	r3,a
   077A 8F 05              1840 	mov	ar5,r7
   077C 7E 00              1841 	mov	r6,#0x00
   077E C3                 1842 	clr	c
   077F EA                 1843 	mov	a,r2
   0780 9D                 1844 	subb	a,r5
   0781 EB                 1845 	mov	a,r3
   0782 64 80              1846 	xrl	a,#0x80
   0784 8E F0              1847 	mov	b,r6
   0786 63 F0 80           1848 	xrl	b,#0x80
   0789 95 F0              1849 	subb	a,b
   078B D0 06              1850 	pop	ar6
   078D D0 05              1851 	pop	ar5
   078F 40 1C              1852 	jc	00118$
                           1853 ;	../fb_app_rs.c:245: rs_send(telegramm[n]);
   0791 EF                 1854 	mov	a,r7
   0792 24r00              1855 	add	a,#_telegramm
   0794 F9                 1856 	mov	r1,a
   0795 87 82              1857 	mov	dpl,@r1
   0797 C0 07              1858 	push	ar7
   0799 C0 06              1859 	push	ar6
   079B C0 05              1860 	push	ar5
   079D C0 04              1861 	push	ar4
   079F 12s00r00           1862 	lcall	_rs_send
   07A2 D0 04              1863 	pop	ar4
   07A4 D0 05              1864 	pop	ar5
   07A6 D0 06              1865 	pop	ar6
   07A8 D0 07              1866 	pop	ar7
                           1867 ;	../fb_app_rs.c:244: for(n=8;n <= length+6;n++){
   07AA 0F                 1868 	inc	r7
   07AB 80 BE              1869 	sjmp	00130$
   07AD                    1870 00118$:
                           1871 ;	../fb_app_rs.c:248: rs_send_s("\n");							// CR LF
   07AD 90s00r00           1872 	mov	dptr,#__str_0
   07B0 75 F0 80           1873 	mov	b,#0x80
   07B3 C0 06              1874 	push	ar6
   07B5 C0 05              1875 	push	ar5
   07B7 12s00r00           1876 	lcall	_rs_send_s
   07BA D0 05              1877 	pop	ar5
   07BC D0 06              1878 	pop	ar6
   07BE                    1879 00120$:
                           1880 ;	../fb_app_rs.c:251: save_ga(ga,val);						// GA mit Wert speichern
   07BE C0 05              1881 	push	ar5
   07C0 C0 06              1882 	push	ar6
   07C2 A8*00              1883 	mov	r0,_bp
   07C4 08                 1884 	inc	r0
   07C5 08                 1885 	inc	r0
   07C6 86 82              1886 	mov	dpl,@r0
   07C8 08                 1887 	inc	r0
   07C9 86 83              1888 	mov	dph,@r0
   07CB 12s07rD9           1889 	lcall	_save_ga
   07CE 15 81              1890 	dec	sp
   07D0 15 81              1891 	dec	sp
   07D2                    1892 00134$:
   07D2 85*00 81           1893 	mov	sp,_bp
   07D5 D0*00              1894 	pop	_bp
   07D7 22                 1895 	ret
                           1896 ;------------------------------------------------------------
                           1897 ;Allocation info for local variables in function 'read_value_req'
                           1898 ;------------------------------------------------------------
                           1899 ;	../fb_app_rs.c:260: void read_value_req(void)
                           1900 ;	-----------------------------------------
                           1901 ;	 function read_value_req
                           1902 ;	-----------------------------------------
   07D8                    1903 _read_value_req:
                           1904 ;	../fb_app_rs.c:263: }
   07D8 22                 1905 	ret
                           1906 ;------------------------------------------------------------
                           1907 ;Allocation info for local variables in function 'save_ga'
                           1908 ;------------------------------------------------------------
                           1909 ;val                       Allocated to stack - _bp -4
                           1910 ;ga                        Allocated to stack - _bp +1
                           1911 ;n                         Allocated to registers r5 
                           1912 ;write_ok                  Allocated to registers b0 
                           1913 ;------------------------------------------------------------
                           1914 ;	../fb_app_rs.c:270: void save_ga(unsigned int ga, unsigned int val)
                           1915 ;	-----------------------------------------
                           1916 ;	 function save_ga
                           1917 ;	-----------------------------------------
   07D9                    1918 _save_ga:
   07D9 C0*00              1919 	push	_bp
   07DB 85 81*00           1920 	mov	_bp,sp
   07DE C0 82              1921 	push	dpl
   07E0 C0 83              1922 	push	dph
                           1923 ;	../fb_app_rs.c:275: n=0;
   07E2 7D 00              1924 	mov	r5,#0x00
                           1925 ;	../fb_app_rs.c:276: do {								// Wert der GA in Flash schreiben
   07E4 A8*00              1926 	mov	r0,_bp
   07E6 08                 1927 	inc	r0
   07E7 08                 1928 	inc	r0
   07E8 86 04              1929 	mov	ar4,@r0
   07EA E5*00              1930 	mov	a,_bp
   07EC 24 FC              1931 	add	a,#0xfc
   07EE F8                 1932 	mov	r0,a
   07EF 08                 1933 	inc	r0
   07F0 86 03              1934 	mov	ar3,@r0
   07F2                    1935 00111$:
                           1936 ;	../fb_app_rs.c:277: if(ga_db[n].ga==ga || ga_db[n].ga==0xFFFF) {
   07F2 C0 03              1937 	push	ar3
   07F4 ED                 1938 	mov	a,r5
   07F5 2D                 1939 	add	a,r5
   07F6 25 E0              1940 	add	a,acc
   07F8 FA                 1941 	mov	r2,a
   07F9 F5 82              1942 	mov	dpl,a
   07FB 75 83 1D           1943 	mov	dph,#(_ga_db >> 8)
   07FE E4                 1944 	clr	a
   07FF 93                 1945 	movc	a,@a+dptr
   0800 FB                 1946 	mov	r3,a
   0801 A3                 1947 	inc	dptr
   0802 E4                 1948 	clr	a
   0803 93                 1949 	movc	a,@a+dptr
   0804 FF                 1950 	mov	r7,a
   0805 A8*00              1951 	mov	r0,_bp
   0807 08                 1952 	inc	r0
   0808 E6                 1953 	mov	a,@r0
   0809 B5 03 09           1954 	cjne	a,ar3,00122$
   080C 08                 1955 	inc	r0
   080D E6                 1956 	mov	a,@r0
   080E B5 07 04           1957 	cjne	a,ar7,00122$
   0811 D0 03              1958 	pop	ar3
   0813 80 14              1959 	sjmp	00108$
   0815                    1960 00122$:
   0815 D0 03              1961 	pop	ar3
   0817 8A 82              1962 	mov	dpl,r2
   0819 75 83 1D           1963 	mov	dph,#(_ga_db >> 8)
   081C E4                 1964 	clr	a
   081D 93                 1965 	movc	a,@a+dptr
   081E FE                 1966 	mov	r6,a
   081F A3                 1967 	inc	dptr
   0820 E4                 1968 	clr	a
   0821 93                 1969 	movc	a,@a+dptr
   0822 FF                 1970 	mov	r7,a
   0823 BE FF 57           1971 	cjne	r6,#0xFF,00109$
   0826 BF FF 54           1972 	cjne	r7,#0xFF,00109$
   0829                    1973 00108$:
                           1974 ;	../fb_app_rs.c:278: write_ok=0;
   0829 C2*00              1975 	clr	b0
                           1976 ;	../fb_app_rs.c:279: while (!write_ok) {
   082B ED                 1977 	mov	a,r5
   082C 2D                 1978 	add	a,r5
   082D 25 E0              1979 	add	a,acc
   082F FF                 1980 	mov	r7,a
   0830 24 02              1981 	add	a,#0x02
   0832 FE                 1982 	mov	r6,a
   0833                    1983 00105$:
   0833 20*00 45           1984 	jb	b0,00107$
                           1985 ;	../fb_app_rs.c:280: START_WRITECYCLE
   0836 C0 03              1986 	push	ar3
   0838 75 E4 00           1987 	mov	_FMCON,#0x00
                           1988 ;	../fb_app_rs.c:281: if(ga_db[n].ga==0xFFFF) {			// GA noch nicht gespeichert
   083B 8F 82              1989 	mov	dpl,r7
   083D 75 83 1D           1990 	mov	dph,#(_ga_db >> 8)
   0840 E4                 1991 	clr	a
   0841 93                 1992 	movc	a,@a+dptr
   0842 FA                 1993 	mov	r2,a
   0843 A3                 1994 	inc	dptr
   0844 E4                 1995 	clr	a
   0845 93                 1996 	movc	a,@a+dptr
   0846 FB                 1997 	mov	r3,a
   0847 BA FF 05           1998 	cjne	r2,#0xFF,00126$
   084A BB FF 02           1999 	cjne	r3,#0xFF,00126$
   084D 80 04              2000 	sjmp	00127$
   084F                    2001 00126$:
   084F D0 03              2002 	pop	ar3
   0851 80 0E              2003 	sjmp	00102$
   0853                    2004 00127$:
   0853 D0 03              2005 	pop	ar3
                           2006 ;	../fb_app_rs.c:282: FMADRH = 0x1D;//(n >> 6) + 0x1D;		// GA schreiben
   0855 75 E7 1D           2007 	mov	_FMADRH,#0x1D
                           2008 ;	../fb_app_rs.c:283: FMADRL = n*4;//((n & 0x3F) * 4);		// (int wird LSB first abgelegt)
   0858 8F E6              2009 	mov	_FMADRL,r7
                           2010 ;	../fb_app_rs.c:284: FMDATA=ga;
   085A A8*00              2011 	mov	r0,_bp
   085C 08                 2012 	inc	r0
   085D 86 E5              2013 	mov	_FMDATA,@r0
                           2014 ;	../fb_app_rs.c:285: FMDATA=ga>>8;
   085F 8C E5              2015 	mov	_FMDATA,r4
   0861                    2016 00102$:
                           2017 ;	../fb_app_rs.c:287: FMADRH = 0x1D;//(n >> 6) + 0x1D;		// Value schreiben
   0861 75 E7 1D           2018 	mov	_FMADRH,#0x1D
                           2019 ;	../fb_app_rs.c:288: FMADRL = (n*4) +2;//((n & 0x3F) * 4) + 2;
   0864 8E E6              2020 	mov	_FMADRL,r6
                           2021 ;	../fb_app_rs.c:289: FMDATA=val;
   0866 E5*00              2022 	mov	a,_bp
   0868 24 FC              2023 	add	a,#0xfc
   086A F8                 2024 	mov	r0,a
   086B 86 E5              2025 	mov	_FMDATA,@r0
                           2026 ;	../fb_app_rs.c:290: FMDATA=val>>8;					// High Byte schreiben
   086D 8B E5              2027 	mov	_FMDATA,r3
                           2028 ;	../fb_app_rs.c:291: STOP_WRITECYCLE
   086F 75 E4 68           2029 	mov	_FMCON,#0x68
                           2030 ;	../fb_app_rs.c:292: if(!(FMCON & 0x01)) write_ok=1;	// pruefen, ob erfolgreich geflasht
   0872 E5 E4              2031 	mov	a,_FMCON
   0874 20 E0 BC           2032 	jb	acc.0,00105$
   0877 D2*00              2033 	setb	b0
   0879 80 B8              2034 	sjmp	00105$
   087B                    2035 00107$:
                           2036 ;	../fb_app_rs.c:294: n=62;	// Schleife abbrechen
   087B 7D 3E              2037 	mov	r5,#0x3E
   087D                    2038 00109$:
                           2039 ;	../fb_app_rs.c:296: n++;
   087D 0D                 2040 	inc	r5
                           2041 ;	../fb_app_rs.c:297: }while (n<62);
   087E BD 3E 00           2042 	cjne	r5,#0x3E,00129$
   0881                    2043 00129$:
   0881 50 03              2044 	jnc	00130$
   0883 02s07rF2           2045 	ljmp	00111$
   0886                    2046 00130$:
   0886 85*00 81           2047 	mov	sp,_bp
   0889 D0*00              2048 	pop	_bp
   088B 22                 2049 	ret
                           2050 ;------------------------------------------------------------
                           2051 ;Allocation info for local variables in function 'tel_header'
                           2052 ;------------------------------------------------------------
                           2053 ;length                    Allocated to stack - _bp -3
                           2054 ;ga                        Allocated to registers r6 r7 
                           2055 ;------------------------------------------------------------
                           2056 ;	../fb_app_rs.c:303: void tel_header(unsigned int ga, unsigned char length)
                           2057 ;	-----------------------------------------
                           2058 ;	 function tel_header
                           2059 ;	-----------------------------------------
   088C                    2060 _tel_header:
   088C C0*00              2061 	push	_bp
   088E 85 81*00           2062 	mov	_bp,sp
   0891 AE 82              2063 	mov	r6,dpl
   0893 AF 83              2064 	mov	r7,dph
                           2065 ;	../fb_app_rs.c:305: telegramm[0]=0xBC;
   0895 75*00 BC           2066 	mov	_telegramm,#0xBC
                           2067 ;	../fb_app_rs.c:306: telegramm[1]=pa_h;
   0898 90 1C FB           2068 	mov	dptr,#_pa_h
   089B E4                 2069 	clr	a
   089C 93                 2070 	movc	a,@a+dptr
   089D FD                 2071 	mov	r5,a
   089E 8D*01              2072 	mov	(_telegramm + 0x0001),r5
                           2073 ;	../fb_app_rs.c:307: telegramm[2]=pa_l;
   08A0 90 1C FC           2074 	mov	dptr,#_pa_l
   08A3 E4                 2075 	clr	a
   08A4 93                 2076 	movc	a,@a+dptr
   08A5 FD                 2077 	mov	r5,a
   08A6 8D*02              2078 	mov	(_telegramm + 0x0002),r5
                           2079 ;	../fb_app_rs.c:308: telegramm[3]=ga>>8;
   08A8 8F 05              2080 	mov	ar5,r7
   08AA 8D*03              2081 	mov	(_telegramm + 0x0003),r5
                           2082 ;	../fb_app_rs.c:309: telegramm[4]=ga;
   08AC 8E*04              2083 	mov	(_telegramm + 0x0004),r6
                           2084 ;	../fb_app_rs.c:310: telegramm[5]=0xE0 + length;
   08AE E5*00              2085 	mov	a,_bp
   08B0 24 FD              2086 	add	a,#0xfd
   08B2 F8                 2087 	mov	r0,a
   08B3 74 E0              2088 	mov	a,#0xE0
   08B5 26                 2089 	add	a,@r0
   08B6 F5*05              2090 	mov	(_telegramm + 0x0005),a
                           2091 ;	../fb_app_rs.c:311: telegramm[6]=0x00;
   08B8 75*06 00           2092 	mov	(_telegramm + 0x0006),#0x00
   08BB D0*00              2093 	pop	_bp
   08BD 22                 2094 	ret
                           2095 ;------------------------------------------------------------
                           2096 ;Allocation info for local variables in function 'convert_adr'
                           2097 ;------------------------------------------------------------
                           2098 ;pos                       Allocated to registers r7 
                           2099 ;adr                       Allocated to stack - _bp +1
                           2100 ;sepcount                  Allocated to registers r3 
                           2101 ;n                         Allocated to stack - _bp +3
                           2102 ;adr_tmp                   Allocated to registers r5 
                           2103 ;firstrun                  Allocated to registers b0 
                           2104 ;------------------------------------------------------------
                           2105 ;	../fb_app_rs.c:316: unsigned int convert_adr(unsigned char pos)
                           2106 ;	-----------------------------------------
                           2107 ;	 function convert_adr
                           2108 ;	-----------------------------------------
   08BE                    2109 _convert_adr:
   08BE C0*00              2110 	push	_bp
   08C0 85 81*00           2111 	mov	_bp,sp
   08C3 05 81              2112 	inc	sp
   08C5 05 81              2113 	inc	sp
   08C7 05 81              2114 	inc	sp
   08C9 AF 82              2115 	mov	r7,dpl
                           2116 ;	../fb_app_rs.c:322: firstrun=1;
   08CB D2*00              2117 	setb	b0
                           2118 ;	../fb_app_rs.c:325: adr=0;
   08CD A8*00              2119 	mov	r0,_bp
   08CF 08                 2120 	inc	r0
   08D0 E4                 2121 	clr	a
   08D1 F6                 2122 	mov	@r0,a
   08D2 08                 2123 	inc	r0
   08D3 F6                 2124 	mov	@r0,a
                           2125 ;	../fb_app_rs.c:326: adr_tmp=0;
                           2126 ;	../fb_app_rs.c:327: while(rsin[n]!='=' && n<(rsinpos-1)) {
   08D4 E4                 2127 	clr	a
   08D5 FD                 2128 	mov	r5,a
   08D6 FB                 2129 	mov	r3,a
   08D7 E5*00              2130 	mov	a,_bp
   08D9 24 03              2131 	add	a,#0x03
   08DB F8                 2132 	mov	r0,a
   08DC A6 07              2133 	mov	@r0,ar7
   08DE                    2134 00117$:
   08DE E5*00              2135 	mov	a,_bp
   08E0 24 03              2136 	add	a,#0x03
   08E2 F8                 2137 	mov	r0,a
   08E3 E6                 2138 	mov	a,@r0
   08E4 24r00              2139 	add	a,#_rsin
   08E6 F9                 2140 	mov	r1,a
   08E7 87 02              2141 	mov	ar2,@r1
   08E9 BA 3D 03           2142 	cjne	r2,#0x3D,00132$
   08EC 02s09rAF           2143 	ljmp	00119$
   08EF                    2144 00132$:
   08EF C0 03              2145 	push	ar3
   08F1 AB*1E              2146 	mov	r3,_rsinpos
   08F3 7C 00              2147 	mov	r4,#0x00
   08F5 1B                 2148 	dec	r3
   08F6 BB FF 01           2149 	cjne	r3,#0xFF,00133$
   08F9 1C                 2150 	dec	r4
   08FA                    2151 00133$:
   08FA E5*00              2152 	mov	a,_bp
   08FC 24 03              2153 	add	a,#0x03
   08FE F8                 2154 	mov	r0,a
   08FF 86 06              2155 	mov	ar6,@r0
   0901 7F 00              2156 	mov	r7,#0x00
   0903 C3                 2157 	clr	c
   0904 EE                 2158 	mov	a,r6
   0905 9B                 2159 	subb	a,r3
   0906 EF                 2160 	mov	a,r7
   0907 64 80              2161 	xrl	a,#0x80
   0909 8C F0              2162 	mov	b,r4
   090B 63 F0 80           2163 	xrl	b,#0x80
   090E 95 F0              2164 	subb	a,b
   0910 D0 03              2165 	pop	ar3
   0912 40 03              2166 	jc	00134$
   0914 02s09rAF           2167 	ljmp	00119$
   0917                    2168 00134$:
                           2169 ;	../fb_app_rs.c:328: if(rsin[n]!='/' && rsin[n]!='.') {
   0917 BA 2F 02           2170 	cjne	r2,#0x2F,00135$
   091A 80 21              2171 	sjmp	00113$
   091C                    2172 00135$:
   091C BA 2E 02           2173 	cjne	r2,#0x2E,00136$
   091F 80 1C              2174 	sjmp	00113$
   0921                    2175 00136$:
                           2176 ;	../fb_app_rs.c:329: if(!firstrun) adr_tmp*=10;
   0921 20*00 06           2177 	jb	b0,00102$
   0924 ED                 2178 	mov	a,r5
   0925 75 F0 0A           2179 	mov	b,#0x0A
   0928 A4                 2180 	mul	ab
   0929 FD                 2181 	mov	r5,a
   092A                    2182 00102$:
                           2183 ;	../fb_app_rs.c:330: adr_tmp+=rsin[n]-48;
   092A E5*00              2184 	mov	a,_bp
   092C 24 03              2185 	add	a,#0x03
   092E F8                 2186 	mov	r0,a
   092F E6                 2187 	mov	a,@r0
   0930 24r00              2188 	add	a,#_rsin
   0932 F9                 2189 	mov	r1,a
   0933 E7                 2190 	mov	a,@r1
   0934 24 D0              2191 	add	a,#0xD0
   0936 FF                 2192 	mov	r7,a
   0937 2D                 2193 	add	a,r5
   0938 FD                 2194 	mov	r5,a
                           2195 ;	../fb_app_rs.c:331: firstrun=0;
   0939 C2*00              2196 	clr	b0
   093B 80 69              2197 	sjmp	00114$
   093D                    2198 00113$:
                           2199 ;	../fb_app_rs.c:334: sepcount++;
   093D 0B                 2200 	inc	r3
                           2201 ;	../fb_app_rs.c:335: firstrun=1;
   093E D2*00              2202 	setb	b0
                           2203 ;	../fb_app_rs.c:336: adr+=adr_tmp;
   0940 8D 04              2204 	mov	ar4,r5
   0942 7F 00              2205 	mov	r7,#0x00
   0944 A8*00              2206 	mov	r0,_bp
   0946 08                 2207 	inc	r0
   0947 EC                 2208 	mov	a,r4
   0948 26                 2209 	add	a,@r0
   0949 F6                 2210 	mov	@r0,a
   094A EF                 2211 	mov	a,r7
   094B 08                 2212 	inc	r0
   094C 36                 2213 	addc	a,@r0
   094D F6                 2214 	mov	@r0,a
                           2215 ;	../fb_app_rs.c:337: if (rsin[n]=='/') {		// fr GA
   094E E5*00              2216 	mov	a,_bp
   0950 24 03              2217 	add	a,#0x03
   0952 F8                 2218 	mov	r0,a
   0953 E6                 2219 	mov	a,@r0
   0954 24r00              2220 	add	a,#_rsin
   0956 F9                 2221 	mov	r1,a
   0957 87 07              2222 	mov	ar7,@r1
   0959 BF 2F 26           2223 	cjne	r7,#0x2F,00110$
                           2224 ;	../fb_app_rs.c:338: if (sepcount==1) adr=adr<<3; else adr=adr<<8;
   095C BB 01 18           2225 	cjne	r3,#0x01,00104$
   095F A8*00              2226 	mov	r0,_bp
   0961 08                 2227 	inc	r0
   0962 08                 2228 	inc	r0
   0963 E6                 2229 	mov	a,@r0
   0964 18                 2230 	dec	r0
   0965 C4                 2231 	swap	a
   0966 03                 2232 	rr	a
   0967 54 F8              2233 	anl	a,#0xF8
   0969 C6                 2234 	xch	a,@r0
   096A C4                 2235 	swap	a
   096B 03                 2236 	rr	a
   096C C6                 2237 	xch	a,@r0
   096D 66                 2238 	xrl	a,@r0
   096E C6                 2239 	xch	a,@r0
   096F 54 F8              2240 	anl	a,#0xF8
   0971 C6                 2241 	xch	a,@r0
   0972 66                 2242 	xrl	a,@r0
   0973 08                 2243 	inc	r0
   0974 F6                 2244 	mov	@r0,a
   0975 80 2D              2245 	sjmp	00111$
   0977                    2246 00104$:
   0977 A8*00              2247 	mov	r0,_bp
   0979 08                 2248 	inc	r0
   097A E6                 2249 	mov	a,@r0
   097B 08                 2250 	inc	r0
   097C F6                 2251 	mov	@r0,a
   097D 18                 2252 	dec	r0
   097E 76 00              2253 	mov	@r0,#0x00
   0980 80 22              2254 	sjmp	00111$
   0982                    2255 00110$:
                           2256 ;	../fb_app_rs.c:341: if (sepcount==1) adr=adr<<4; else adr=adr<<8;
   0982 BB 01 16           2257 	cjne	r3,#0x01,00107$
   0985 A8*00              2258 	mov	r0,_bp
   0987 08                 2259 	inc	r0
   0988 08                 2260 	inc	r0
   0989 E6                 2261 	mov	a,@r0
   098A 18                 2262 	dec	r0
   098B C4                 2263 	swap	a
   098C 54 F0              2264 	anl	a,#0xF0
   098E C6                 2265 	xch	a,@r0
   098F C4                 2266 	swap	a
   0990 C6                 2267 	xch	a,@r0
   0991 66                 2268 	xrl	a,@r0
   0992 C6                 2269 	xch	a,@r0
   0993 54 F0              2270 	anl	a,#0xF0
   0995 C6                 2271 	xch	a,@r0
   0996 66                 2272 	xrl	a,@r0
   0997 08                 2273 	inc	r0
   0998 F6                 2274 	mov	@r0,a
   0999 80 09              2275 	sjmp	00111$
   099B                    2276 00107$:
   099B A8*00              2277 	mov	r0,_bp
   099D 08                 2278 	inc	r0
   099E E6                 2279 	mov	a,@r0
   099F 08                 2280 	inc	r0
   09A0 F6                 2281 	mov	@r0,a
   09A1 18                 2282 	dec	r0
   09A2 76 00              2283 	mov	@r0,#0x00
   09A4                    2284 00111$:
                           2285 ;	../fb_app_rs.c:343: adr_tmp=0;
   09A4 7D 00              2286 	mov	r5,#0x00
   09A6                    2287 00114$:
                           2288 ;	../fb_app_rs.c:345: n++;
   09A6 E5*00              2289 	mov	a,_bp
   09A8 24 03              2290 	add	a,#0x03
   09AA F8                 2291 	mov	r0,a
   09AB 06                 2292 	inc	@r0
   09AC 02s08rDE           2293 	ljmp	00117$
   09AF                    2294 00119$:
                           2295 ;	../fb_app_rs.c:347: adr+=adr_tmp;
   09AF 8D 04              2296 	mov	ar4,r5
   09B1 7F 00              2297 	mov	r7,#0x00
   09B3 A8*00              2298 	mov	r0,_bp
   09B5 08                 2299 	inc	r0
   09B6 EC                 2300 	mov	a,r4
   09B7 26                 2301 	add	a,@r0
   09B8 F6                 2302 	mov	@r0,a
   09B9 EF                 2303 	mov	a,r7
   09BA 08                 2304 	inc	r0
   09BB 36                 2305 	addc	a,@r0
   09BC F6                 2306 	mov	@r0,a
                           2307 ;	../fb_app_rs.c:348: return(adr);
   09BD A8*00              2308 	mov	r0,_bp
   09BF 08                 2309 	inc	r0
   09C0 86 82              2310 	mov	dpl,@r0
   09C2 08                 2311 	inc	r0
   09C3 86 83              2312 	mov	dph,@r0
   09C5 85*00 81           2313 	mov	sp,_bp
   09C8 D0*00              2314 	pop	_bp
   09CA 22                 2315 	ret
                           2316 ;------------------------------------------------------------
                           2317 ;Allocation info for local variables in function 'equal_pos'
                           2318 ;------------------------------------------------------------
                           2319 ;n                         Allocated to registers r7 
                           2320 ;------------------------------------------------------------
                           2321 ;	../fb_app_rs.c:354: unsigned char equal_pos(void)
                           2322 ;	-----------------------------------------
                           2323 ;	 function equal_pos
                           2324 ;	-----------------------------------------
   09CB                    2325 _equal_pos:
                           2326 ;	../fb_app_rs.c:358: n=0;
   09CB 7F 00              2327 	mov	r7,#0x00
                           2328 ;	../fb_app_rs.c:360: while(n<(rsinpos-1))
   09CD 7E 00              2329 	mov	r6,#0x00
   09CF                    2330 00103$:
   09CF AC*1E              2331 	mov	r4,_rsinpos
   09D1 7D 00              2332 	mov	r5,#0x00
   09D3 1C                 2333 	dec	r4
   09D4 BC FF 01           2334 	cjne	r4,#0xFF,00111$
   09D7 1D                 2335 	dec	r5
   09D8                    2336 00111$:
   09D8 8E 02              2337 	mov	ar2,r6
   09DA 7B 00              2338 	mov	r3,#0x00
   09DC C3                 2339 	clr	c
   09DD EA                 2340 	mov	a,r2
   09DE 9C                 2341 	subb	a,r4
   09DF EB                 2342 	mov	a,r3
   09E0 64 80              2343 	xrl	a,#0x80
   09E2 8D F0              2344 	mov	b,r5
   09E4 63 F0 80           2345 	xrl	b,#0x80
   09E7 95 F0              2346 	subb	a,b
   09E9 50 11              2347 	jnc	00105$
                           2348 ;	../fb_app_rs.c:362: if(rsin[n]=='=')return(n);
   09EB EE                 2349 	mov	a,r6
   09EC 24r00              2350 	add	a,#_rsin
   09EE F9                 2351 	mov	r1,a
   09EF 87 05              2352 	mov	ar5,@r1
   09F1 BD 3D 03           2353 	cjne	r5,#0x3D,00102$
   09F4 8F 82              2354 	mov	dpl,r7
   09F6 22                 2355 	ret
   09F7                    2356 00102$:
                           2357 ;	../fb_app_rs.c:363: n++;
   09F7 0E                 2358 	inc	r6
   09F8 8E 07              2359 	mov	ar7,r6
   09FA 80 D3              2360 	sjmp	00103$
   09FC                    2361 00105$:
                           2362 ;	../fb_app_rs.c:365: return(0xFF);
   09FC 75 82 FF           2363 	mov	dpl,#0xFF
   09FF 22                 2364 	ret
                           2365 ;------------------------------------------------------------
                           2366 ;Allocation info for local variables in function 'serial_int'
                           2367 ;------------------------------------------------------------
                           2368 ;	../fb_app_rs.c:369: void serial_int(void) __interrupt (4) __using (1)	// Interrupt on received char from serial port
                           2369 ;	-----------------------------------------
                           2370 ;	 function serial_int
                           2371 ;	-----------------------------------------
   0A00                    2372 _serial_int:
                    000F   2373 	ar7 = 0x0F
                    000E   2374 	ar6 = 0x0E
                    000D   2375 	ar5 = 0x0D
                    000C   2376 	ar4 = 0x0C
                    000B   2377 	ar3 = 0x0B
                    000A   2378 	ar2 = 0x0A
                    0009   2379 	ar1 = 0x09
                    0008   2380 	ar0 = 0x08
   0A00 C0 E0              2381 	push	acc
   0A02 C0 82              2382 	push	dpl
   0A04 C0 83              2383 	push	dph
   0A06 C0 D0              2384 	push	psw
   0A08 75 D0 08           2385 	mov	psw,#0x08
                           2386 ;	../fb_app_rs.c:371: ES=0;
   0A0B C2 AC              2387 	clr	_IEN0_4
                           2388 ;	../fb_app_rs.c:372: if (RI){
   0A0D 30 98 30           2389 	jnb	_SCON_0,00112$
                           2390 ;	../fb_app_rs.c:373: if (rsinpos<30) {
   0A10 74 E2              2391 	mov	a,#0x100 - 0x1E
   0A12 25*1E              2392 	add	a,_rsinpos
   0A14 40 25              2393 	jc	00109$
                           2394 ;	../fb_app_rs.c:374: rxledcount=0x40;// * RXLED kurz eischalten
   0A16 75*25 40           2395 	mov	_rxledcount,#0x40
                           2396 ;	../fb_app_rs.c:375: if(SBUF!=0x0A) {
   0A19 74 0A              2397 	mov	a,#0x0A
   0A1B B5 99 02           2398 	cjne	a,_SBUF,00122$
   0A1E 80 1E              2399 	sjmp	00110$
   0A20                    2400 00122$:
                           2401 ;	../fb_app_rs.c:376: rsin[rsinpos]=SBUF;		// store byte in rsin
   0A20 E5*1E              2402 	mov	a,_rsinpos
   0A22 24r00              2403 	add	a,#_rsin
   0A24 F8                 2404 	mov	r0,a
   0A25 A6 99              2405 	mov	@r0,_SBUF
                           2406 ;	../fb_app_rs.c:377: rsinpos++;
   0A27 05*1E              2407 	inc	_rsinpos
                           2408 ;	../fb_app_rs.c:378: if (echo) {
   0A29 90 1C FD           2409 	mov	dptr,#_echo
   0A2C E4                 2410 	clr	a
   0A2D 93                 2411 	movc	a,@a+dptr
   0A2E FF                 2412 	mov	r7,a
   0A2F 60 0D              2413 	jz	00110$
                           2414 ;	../fb_app_rs.c:379: while(!TI);
   0A31                    2415 00101$:
                           2416 ;	../fb_app_rs.c:380: TI=0;
   0A31 10 99 02           2417 	jbc	_SCON_1,00124$
   0A34 80 FB              2418 	sjmp	00101$
   0A36                    2419 00124$:
                           2420 ;	../fb_app_rs.c:381: SBUF=SBUF;
   0A36 85 99 99           2421 	mov	_SBUF,_SBUF
   0A39 80 03              2422 	sjmp	00110$
   0A3B                    2423 00109$:
                           2424 ;	../fb_app_rs.c:385: else rsinpos=0;
   0A3B 75*1E 00           2425 	mov	_rsinpos,#0x00
   0A3E                    2426 00110$:
                           2427 ;	../fb_app_rs.c:386: RI=0;	
   0A3E C2 98              2428 	clr	_SCON_0
   0A40                    2429 00112$:
                           2430 ;	../fb_app_rs.c:388: ES=1;
   0A40 D2 AC              2431 	setb	_IEN0_4
   0A42 D0 D0              2432 	pop	psw
   0A44 D0 83              2433 	pop	dph
   0A46 D0 82              2434 	pop	dpl
   0A48 D0 E0              2435 	pop	acc
   0A4A 32                 2436 	reti
                           2437 ;	eliminated unneeded push/pop b
                           2438 ;------------------------------------------------------------
                           2439 ;Allocation info for local variables in function 'send_ok'
                           2440 ;------------------------------------------------------------
                           2441 ;	../fb_app_rs.c:391: void send_ok(void)
                           2442 ;	-----------------------------------------
                           2443 ;	 function send_ok
                           2444 ;	-----------------------------------------
   0A4B                    2445 _send_ok:
                    0007   2446 	ar7 = 0x07
                    0006   2447 	ar6 = 0x06
                    0005   2448 	ar5 = 0x05
                    0004   2449 	ar4 = 0x04
                    0003   2450 	ar3 = 0x03
                    0002   2451 	ar2 = 0x02
                    0001   2452 	ar1 = 0x01
                    0000   2453 	ar0 = 0x00
                           2454 ;	../fb_app_rs.c:393: rs_send_s("OK\n");
   0A4B 90s00r02           2455 	mov	dptr,#__str_1
   0A4E 75 F0 80           2456 	mov	b,#0x80
   0A51 02s00r00           2457 	ljmp	_rs_send_s
                           2458 ;------------------------------------------------------------
                           2459 ;Allocation info for local variables in function 'set_filtermode'
                           2460 ;------------------------------------------------------------
                           2461 ;mode                      Allocated to registers r7 
                           2462 ;------------------------------------------------------------
                           2463 ;	../fb_app_rs.c:396: void set_filtermode(unsigned char mode)
                           2464 ;	-----------------------------------------
                           2465 ;	 function set_filtermode
                           2466 ;	-----------------------------------------
   0A54                    2467 _set_filtermode:
   0A54 AF 82              2468 	mov	r7,dpl
                           2469 ;	../fb_app_rs.c:398: write_ok=0;
   0A56 C2*00              2470 	clr	_write_ok
                           2471 ;	../fb_app_rs.c:399: while (!write_ok) {
   0A58 E4                 2472 	clr	a
   0A59 BF 31 01           2473 	cjne	r7,#0x31,00115$
   0A5C 04                 2474 	inc	a
   0A5D                    2475 00115$:
   0A5D FF                 2476 	mov	r7,a
   0A5E                    2477 00106$:
   0A5E 20*00 28           2478 	jb	_write_ok,00109$
                           2479 ;	../fb_app_rs.c:400: START_WRITECYCLE
   0A61 75 E4 00           2480 	mov	_FMCON,#0x00
                           2481 ;	../fb_app_rs.c:401: FMADRH = 0x1C;
   0A64 75 E7 1C           2482 	mov	_FMADRH,#0x1C
                           2483 ;	../fb_app_rs.c:402: FMADRL = 0xFA;
   0A67 75 E6 FA           2484 	mov	_FMADRL,#0xFA
                           2485 ;	../fb_app_rs.c:403: if(mode =='1'){
   0A6A EF                 2486 	mov	a,r7
   0A6B 60 09              2487 	jz	00102$
                           2488 ;	../fb_app_rs.c:404: filtermode=1;
   0A6D D2*00              2489 	setb	_filtermode
                           2490 ;	../fb_app_rs.c:405: transparency=0;
   0A6F C2*00              2491 	clr	_transparency
                           2492 ;	../fb_app_rs.c:406: FMDATA = 1;		// LSB
   0A71 75 E5 01           2493 	mov	_FMDATA,#0x01
   0A74 80 07              2494 	sjmp	00103$
   0A76                    2495 00102$:
                           2496 ;	../fb_app_rs.c:409: filtermode=0;
   0A76 C2*00              2497 	clr	_filtermode
                           2498 ;	../fb_app_rs.c:410: transparency=1;
   0A78 D2*00              2499 	setb	_transparency
                           2500 ;	../fb_app_rs.c:411: FMDATA=0;
   0A7A 75 E5 00           2501 	mov	_FMDATA,#0x00
   0A7D                    2502 00103$:
                           2503 ;	../fb_app_rs.c:413: STOP_WRITECYCLE
   0A7D 75 E4 68           2504 	mov	_FMCON,#0x68
                           2505 ;	../fb_app_rs.c:414: if(!(FMCON & 0x01)) write_ok=1;	// pruefen, ob erfolgreich geflasht
   0A80 E5 E4              2506 	mov	a,_FMCON
   0A82 20 E0 D9           2507 	jb	acc.0,00106$
   0A85 D2*00              2508 	setb	_write_ok
   0A87 80 D5              2509 	sjmp	00106$
   0A89                    2510 00109$:
   0A89 22                 2511 	ret
                           2512 ;------------------------------------------------------------
                           2513 ;Allocation info for local variables in function 'restart_app'
                           2514 ;------------------------------------------------------------
                           2515 ;n                         Allocated to registers r7 
                           2516 ;------------------------------------------------------------
                           2517 ;	../fb_app_rs.c:419: void restart_app(void)
                           2518 ;	-----------------------------------------
                           2519 ;	 function restart_app
                           2520 ;	-----------------------------------------
   0A8A                    2521 _restart_app:
                           2522 ;	../fb_app_rs.c:424: P0M1=0x00;
   0A8A 75 84 00           2523 	mov	_P0M1,#0x00
                           2524 ;	../fb_app_rs.c:425: P0M2=0xC0;
   0A8D 75 85 C0           2525 	mov	_P0M2,#0xC0
                           2526 ;	../fb_app_rs.c:426: P0=0xC0;
   0A90 75 80 C0           2527 	mov	_P0,#0xC0
                           2528 ;	../fb_app_rs.c:428: for (n=0;n<255;n++) ;	// Warten bis Bus stabil
   0A93 7F FF              2529 	mov	r7,#0xFF
   0A95                    2530 00103$:
   0A95 8F 06              2531 	mov	ar6,r7
   0A97 1E                 2532 	dec	r6
   0A98 8E 07              2533 	mov	ar7,r6
   0A9A EF                 2534 	mov	a,r7
   0A9B 70 F8              2535 	jnz	00103$
                           2536 ;	../fb_app_rs.c:433: RI=0;
   0A9D C2 98              2537 	clr	_SCON_0
                           2538 ;	../fb_app_rs.c:434: TI=1;
   0A9F D2 99              2539 	setb	_SCON_1
                           2540 ;	../fb_app_rs.c:435: ES=1;
   0AA1 D2 AC              2541 	setb	_IEN0_4
   0AA3 22                 2542 	ret
                           2543 	.area CSEG    (CODE)
                           2544 	.area CONST   (CODE)
                    1CFA   2545 _fm	=	0x1cfa
                    1CFB   2546 _pa_h	=	0x1cfb
                    1CFC   2547 _pa_l	=	0x1cfc
                    1CF8   2548 _sga_h	=	0x1cf8
                    1CF9   2549 _sga_l	=	0x1cf9
                    1D00   2550 _ga_db	=	0x1d00
                    1CFD   2551 _echo	=	0x1cfd
   0000                    2552 __str_0:
   0000 0A                 2553 	.db 0x0A
   0001 00                 2554 	.db 0x00
   0002                    2555 __str_1:
   0002 4F 4B              2556 	.ascii "OK"
   0004 0A                 2557 	.db 0x0A
   0005 00                 2558 	.db 0x00
                           2559 	.area XINIT   (CODE)
                           2560 	.area CABS    (ABS,CODE)
   1CF7                    2561 	.org 0x1CF7
   1CF7                    2562 _esc_char:
   1CF7 66                 2563 	.db #0x66	; 102	'f'
   1CFE                    2564 	.org 0x1CFE
   1CFE                    2565 _baud:
   1CFE C0 00              2566 	.byte #0xC0,#0x00	; 192
