                              1 ;--------------------------------------------------------
                              2 ; File Created by SDCC : free open source ANSI-C Compiler
                              3 ; Version 3.1.0 #7066 (Nov 22 2011) (MINGW32)
                              4 ; This file was generated Mon Nov 19 23:06:04 2012
                              5 ;--------------------------------------------------------
                              6 	.module fb_rs
                              7 	.optsdcc -mmcs51 --model-small
                              8 	
                              9 ;--------------------------------------------------------
                             10 ; Public variables in this module
                             11 ;--------------------------------------------------------
                             12 	.globl _main
                             13 	.globl _watchdog_start
                             14 	.globl _watchdog_feed
                             15 	.globl _watchdog_init
                             16 	.globl _convert_adr
                             17 	.globl _save_ga
                             18 	.globl _restart_app
                             19 	.globl _set_filtermode
                             20 	.globl _send_ok
                             21 	.globl _process_tel
                             22 	.globl _restart_hw
                             23 	.globl _send_obj_value
                             24 	.globl _rs_send_s
                             25 	.globl _rs_send
                             26 	.globl _rs_send_hex_i
                             27 	.globl _rs_send_hex
                             28 	.globl _rs_send_dec
                             29 	.globl _rs_init
                             30 	.globl _P3_1
                             31 	.globl _P3_0
                             32 	.globl _P1_7
                             33 	.globl _P1_6
                             34 	.globl _P1_5
                             35 	.globl _P1_4
                             36 	.globl _P1_3
                             37 	.globl _P1_2
                             38 	.globl _P1_1
                             39 	.globl _P1_0
                             40 	.globl _P0_7
                             41 	.globl _P0_6
                             42 	.globl _P0_5
                             43 	.globl _P0_4
                             44 	.globl _P0_3
                             45 	.globl _P0_2
                             46 	.globl _P0_1
                             47 	.globl _P0_0
                             48 	.globl _I2CON_0
                             49 	.globl _I2CON_2
                             50 	.globl _I2CON_3
                             51 	.globl _I2CON_4
                             52 	.globl _I2CON_5
                             53 	.globl _I2CON_6
                             54 	.globl _SCON_7
                             55 	.globl _SCON_6
                             56 	.globl _SCON_5
                             57 	.globl _SCON_4
                             58 	.globl _SCON_3
                             59 	.globl _SCON_2
                             60 	.globl _SCON_1
                             61 	.globl _SCON_0
                             62 	.globl _IP0_0
                             63 	.globl _IP0_1
                             64 	.globl _IP0_2
                             65 	.globl _IP0_3
                             66 	.globl _IP0_4
                             67 	.globl _IP0_5
                             68 	.globl _IP0_6
                             69 	.globl _IP1_0
                             70 	.globl _IP1_1
                             71 	.globl _IP1_2
                             72 	.globl _IP1_6
                             73 	.globl _IEN1_0
                             74 	.globl _IEN1_1
                             75 	.globl _IEN1_2
                             76 	.globl _IEN0_0
                             77 	.globl _IEN0_1
                             78 	.globl _IEN0_2
                             79 	.globl _IEN0_3
                             80 	.globl _IEN0_4
                             81 	.globl _IEN0_5
                             82 	.globl _IEN0_6
                             83 	.globl _IEN0_7
                             84 	.globl _TCON_0
                             85 	.globl _TCON_1
                             86 	.globl _TCON_2
                             87 	.globl _TCON_3
                             88 	.globl _TCON_4
                             89 	.globl _TCON_5
                             90 	.globl _TCON_6
                             91 	.globl _TCON_7
                             92 	.globl _PSW_7
                             93 	.globl _PSW_6
                             94 	.globl _PSW_5
                             95 	.globl _PSW_4
                             96 	.globl _PSW_3
                             97 	.globl _PSW_2
                             98 	.globl _PSW_1
                             99 	.globl _PSW_0
                            100 	.globl _IEN1
                            101 	.globl _IP0H
                            102 	.globl _WFEED2
                            103 	.globl _WFEED1
                            104 	.globl _WDL
                            105 	.globl _WDCON
                            106 	.globl _TRIM
                            107 	.globl _TAMOD
                            108 	.globl _SSTAT
                            109 	.globl _RTCL
                            110 	.globl _RTCH
                            111 	.globl _RTCCON
                            112 	.globl _RSTSRC
                            113 	.globl _PT0AD
                            114 	.globl _PCONA
                            115 	.globl _P3M2
                            116 	.globl _P3M1
                            117 	.globl _P1M2
                            118 	.globl _P1M1
                            119 	.globl _P0M2
                            120 	.globl _P0M1
                            121 	.globl _KBPATN
                            122 	.globl _KBMASK
                            123 	.globl _KBCON
                            124 	.globl _IP1H
                            125 	.globl _IP1
                            126 	.globl _I2STAT
                            127 	.globl _I2SCLL
                            128 	.globl _I2SCLH
                            129 	.globl _I2DAT
                            130 	.globl _I2CON
                            131 	.globl _I2ADR
                            132 	.globl _FMDATA
                            133 	.globl _FMCON
                            134 	.globl _FMADRL
                            135 	.globl _FMADRH
                            136 	.globl _DIVM
                            137 	.globl _CMP2
                            138 	.globl _CMP1
                            139 	.globl _BRGCON
                            140 	.globl _BRGR1
                            141 	.globl _BRGR0
                            142 	.globl _SADEN
                            143 	.globl _SADDR
                            144 	.globl _AUXR1
                            145 	.globl _SBUF
                            146 	.globl _SCON
                            147 	.globl _IP0
                            148 	.globl _IEN0
                            149 	.globl _TH1
                            150 	.globl _TH0
                            151 	.globl _TL1
                            152 	.globl _TL0
                            153 	.globl _TMOD
                            154 	.globl _TCON
                            155 	.globl _PCON
                            156 	.globl _DPH
                            157 	.globl _DPL
                            158 	.globl _SP
                            159 	.globl _B
                            160 	.globl _ACC
                            161 	.globl _PSW
                            162 	.globl _P3
                            163 	.globl _P1
                            164 	.globl _P0
                            165 	.globl _rsin_busy
                            166 	.globl _write_ok
                            167 	.globl _filtermode
                            168 ;--------------------------------------------------------
                            169 ; special function registers
                            170 ;--------------------------------------------------------
                            171 	.area RSEG    (ABS,DATA)
   0000                     172 	.org 0x0000
                    0080    173 _P0	=	0x0080
                    0090    174 _P1	=	0x0090
                    00B0    175 _P3	=	0x00b0
                    00D0    176 _PSW	=	0x00d0
                    00E0    177 _ACC	=	0x00e0
                    00F0    178 _B	=	0x00f0
                    0081    179 _SP	=	0x0081
                    0082    180 _DPL	=	0x0082
                    0083    181 _DPH	=	0x0083
                    0087    182 _PCON	=	0x0087
                    0088    183 _TCON	=	0x0088
                    0089    184 _TMOD	=	0x0089
                    008A    185 _TL0	=	0x008a
                    008B    186 _TL1	=	0x008b
                    008C    187 _TH0	=	0x008c
                    008D    188 _TH1	=	0x008d
                    00A8    189 _IEN0	=	0x00a8
                    00B8    190 _IP0	=	0x00b8
                    0098    191 _SCON	=	0x0098
                    0099    192 _SBUF	=	0x0099
                    00A2    193 _AUXR1	=	0x00a2
                    00A9    194 _SADDR	=	0x00a9
                    00B9    195 _SADEN	=	0x00b9
                    00BE    196 _BRGR0	=	0x00be
                    00BF    197 _BRGR1	=	0x00bf
                    00BD    198 _BRGCON	=	0x00bd
                    00AC    199 _CMP1	=	0x00ac
                    00AD    200 _CMP2	=	0x00ad
                    0095    201 _DIVM	=	0x0095
                    00E7    202 _FMADRH	=	0x00e7
                    00E6    203 _FMADRL	=	0x00e6
                    00E4    204 _FMCON	=	0x00e4
                    00E5    205 _FMDATA	=	0x00e5
                    00DB    206 _I2ADR	=	0x00db
                    00D8    207 _I2CON	=	0x00d8
                    00DA    208 _I2DAT	=	0x00da
                    00DD    209 _I2SCLH	=	0x00dd
                    00DC    210 _I2SCLL	=	0x00dc
                    00D9    211 _I2STAT	=	0x00d9
                    00F8    212 _IP1	=	0x00f8
                    00F7    213 _IP1H	=	0x00f7
                    0094    214 _KBCON	=	0x0094
                    0086    215 _KBMASK	=	0x0086
                    0093    216 _KBPATN	=	0x0093
                    0084    217 _P0M1	=	0x0084
                    0085    218 _P0M2	=	0x0085
                    0091    219 _P1M1	=	0x0091
                    0092    220 _P1M2	=	0x0092
                    00B1    221 _P3M1	=	0x00b1
                    00B2    222 _P3M2	=	0x00b2
                    00B5    223 _PCONA	=	0x00b5
                    00F6    224 _PT0AD	=	0x00f6
                    00DF    225 _RSTSRC	=	0x00df
                    00D1    226 _RTCCON	=	0x00d1
                    00D2    227 _RTCH	=	0x00d2
                    00D3    228 _RTCL	=	0x00d3
                    00BA    229 _SSTAT	=	0x00ba
                    008F    230 _TAMOD	=	0x008f
                    0096    231 _TRIM	=	0x0096
                    00A7    232 _WDCON	=	0x00a7
                    00C1    233 _WDL	=	0x00c1
                    00C2    234 _WFEED1	=	0x00c2
                    00C3    235 _WFEED2	=	0x00c3
                    00B7    236 _IP0H	=	0x00b7
                    00E8    237 _IEN1	=	0x00e8
                            238 ;--------------------------------------------------------
                            239 ; special function bits
                            240 ;--------------------------------------------------------
                            241 	.area RSEG    (ABS,DATA)
   0000                     242 	.org 0x0000
                    00D0    243 _PSW_0	=	0x00d0
                    00D1    244 _PSW_1	=	0x00d1
                    00D2    245 _PSW_2	=	0x00d2
                    00D3    246 _PSW_3	=	0x00d3
                    00D4    247 _PSW_4	=	0x00d4
                    00D5    248 _PSW_5	=	0x00d5
                    00D6    249 _PSW_6	=	0x00d6
                    00D7    250 _PSW_7	=	0x00d7
                    008F    251 _TCON_7	=	0x008f
                    008E    252 _TCON_6	=	0x008e
                    008D    253 _TCON_5	=	0x008d
                    008C    254 _TCON_4	=	0x008c
                    008B    255 _TCON_3	=	0x008b
                    008A    256 _TCON_2	=	0x008a
                    0089    257 _TCON_1	=	0x0089
                    0088    258 _TCON_0	=	0x0088
                    00AF    259 _IEN0_7	=	0x00af
                    00AE    260 _IEN0_6	=	0x00ae
                    00AD    261 _IEN0_5	=	0x00ad
                    00AC    262 _IEN0_4	=	0x00ac
                    00AB    263 _IEN0_3	=	0x00ab
                    00AA    264 _IEN0_2	=	0x00aa
                    00A9    265 _IEN0_1	=	0x00a9
                    00A8    266 _IEN0_0	=	0x00a8
                    00EA    267 _IEN1_2	=	0x00ea
                    00E9    268 _IEN1_1	=	0x00e9
                    00E8    269 _IEN1_0	=	0x00e8
                    00FE    270 _IP1_6	=	0x00fe
                    00FA    271 _IP1_2	=	0x00fa
                    00F9    272 _IP1_1	=	0x00f9
                    00F8    273 _IP1_0	=	0x00f8
                    00BE    274 _IP0_6	=	0x00be
                    00BD    275 _IP0_5	=	0x00bd
                    00BC    276 _IP0_4	=	0x00bc
                    00BB    277 _IP0_3	=	0x00bb
                    00BA    278 _IP0_2	=	0x00ba
                    00B9    279 _IP0_1	=	0x00b9
                    00B8    280 _IP0_0	=	0x00b8
                    0098    281 _SCON_0	=	0x0098
                    0099    282 _SCON_1	=	0x0099
                    009A    283 _SCON_2	=	0x009a
                    009B    284 _SCON_3	=	0x009b
                    009C    285 _SCON_4	=	0x009c
                    009D    286 _SCON_5	=	0x009d
                    009E    287 _SCON_6	=	0x009e
                    009F    288 _SCON_7	=	0x009f
                    00DE    289 _I2CON_6	=	0x00de
                    00DD    290 _I2CON_5	=	0x00dd
                    00DC    291 _I2CON_4	=	0x00dc
                    00DB    292 _I2CON_3	=	0x00db
                    00DA    293 _I2CON_2	=	0x00da
                    00D8    294 _I2CON_0	=	0x00d8
                    0080    295 _P0_0	=	0x0080
                    0081    296 _P0_1	=	0x0081
                    0082    297 _P0_2	=	0x0082
                    0083    298 _P0_3	=	0x0083
                    0084    299 _P0_4	=	0x0084
                    0085    300 _P0_5	=	0x0085
                    0086    301 _P0_6	=	0x0086
                    0087    302 _P0_7	=	0x0087
                    0090    303 _P1_0	=	0x0090
                    0091    304 _P1_1	=	0x0091
                    0092    305 _P1_2	=	0x0092
                    0093    306 _P1_3	=	0x0093
                    0094    307 _P1_4	=	0x0094
                    0095    308 _P1_5	=	0x0095
                    0096    309 _P1_6	=	0x0096
                    0097    310 _P1_7	=	0x0097
                    00B0    311 _P3_0	=	0x00b0
                    00B1    312 _P3_1	=	0x00b1
                            313 ;--------------------------------------------------------
                            314 ; overlayable register banks
                            315 ;--------------------------------------------------------
                            316 	.area REG_BANK_0	(REL,OVR,DATA)
   0000                     317 	.ds 8
                            318 ;--------------------------------------------------------
                            319 ; overlayable bit register bank
                            320 ;--------------------------------------------------------
                            321 	.area BIT_BANK	(REL,OVR,DATA)
   0000                     322 bits:
   0000                     323 	.ds 1
                    8000    324 	b0 = bits[0]
                    8100    325 	b1 = bits[1]
                    8200    326 	b2 = bits[2]
                    8300    327 	b3 = bits[3]
                    8400    328 	b4 = bits[4]
                    8500    329 	b5 = bits[5]
                    8600    330 	b6 = bits[6]
                    8700    331 	b7 = bits[7]
                            332 ;--------------------------------------------------------
                            333 ; internal ram data
                            334 ;--------------------------------------------------------
                            335 	.area DSEG    (DATA)
                            336 ;--------------------------------------------------------
                            337 ; overlayable items in internal ram 
                            338 ;--------------------------------------------------------
                            339 	.area OSEG    (OVR,DATA)
                            340 ;--------------------------------------------------------
                            341 ; Stack segment in internal ram 
                            342 ;--------------------------------------------------------
                            343 	.area	SSEG	(DATA)
   0000                     344 __start__stack:
   0000                     345 	.ds	1
                            346 
                            347 ;--------------------------------------------------------
                            348 ; indirectly addressable internal ram data
                            349 ;--------------------------------------------------------
                            350 	.area ISEG    (DATA)
                            351 ;--------------------------------------------------------
                            352 ; absolute internal ram data
                            353 ;--------------------------------------------------------
                            354 	.area IABS    (ABS,DATA)
                            355 	.area IABS    (ABS,DATA)
                            356 ;--------------------------------------------------------
                            357 ; bit data
                            358 ;--------------------------------------------------------
                            359 	.area BSEG    (BIT)
   0000                     360 _filtermode::
   0000                     361 	.ds 1
   0001                     362 _write_ok::
   0001                     363 	.ds 1
   0002                     364 _rsin_busy::
   0002                     365 	.ds 1
                            366 ;--------------------------------------------------------
                            367 ; paged external ram data
                            368 ;--------------------------------------------------------
                            369 	.area PSEG    (PAG,XDATA)
                            370 ;--------------------------------------------------------
                            371 ; external ram data
                            372 ;--------------------------------------------------------
                            373 	.area XSEG    (XDATA)
                            374 ;--------------------------------------------------------
                            375 ; absolute external ram data
                            376 ;--------------------------------------------------------
                            377 	.area XABS    (ABS,XDATA)
                            378 ;--------------------------------------------------------
                            379 ; external initialized ram data
                            380 ;--------------------------------------------------------
                            381 	.area XISEG   (XDATA)
                            382 	.area HOME    (CODE)
                            383 	.area GSINIT0 (CODE)
                            384 	.area GSINIT1 (CODE)
                            385 	.area GSINIT2 (CODE)
                            386 	.area GSINIT3 (CODE)
                            387 	.area GSINIT4 (CODE)
                            388 	.area GSINIT5 (CODE)
                            389 	.area GSINIT  (CODE)
                            390 	.area GSFINAL (CODE)
                            391 	.area CSEG    (CODE)
                            392 ;--------------------------------------------------------
                            393 ; interrupt vector 
                            394 ;--------------------------------------------------------
                            395 	.area HOME    (CODE)
   0000                     396 __interrupt_vect:
   0000 02s00r00            397 	ljmp	__sdcc_gsinit_startup
   0003 32                  398 	reti
   0004                     399 	.ds	7
   000B 32                  400 	reti
   000C                     401 	.ds	7
   0013 02s00r00            402 	ljmp	_X1_int
   0016                     403 	.ds	5
   001B 02s00r00            404 	ljmp	_T1_int
   001E                     405 	.ds	5
   0023 02s00r00            406 	ljmp	_serial_int
                            407 ;--------------------------------------------------------
                            408 ; global & static initialisations
                            409 ;--------------------------------------------------------
                            410 	.area HOME    (CODE)
                            411 	.area GSINIT  (CODE)
                            412 	.area GSFINAL (CODE)
                            413 	.area GSINIT  (CODE)
                            414 	.globl __sdcc_gsinit_startup
                            415 	.globl __sdcc_program_startup
                            416 	.globl __start__stack
                            417 	.globl __mcs51_genXINIT
                            418 	.globl __mcs51_genXRAMCLEAR
                            419 	.globl __mcs51_genRAMCLEAR
                            420 	.area GSFINAL (CODE)
   0000 02s00r26            421 	ljmp	__sdcc_program_startup
                            422 ;--------------------------------------------------------
                            423 ; Home
                            424 ;--------------------------------------------------------
                            425 	.area HOME    (CODE)
                            426 	.area HOME    (CODE)
   0026                     427 __sdcc_program_startup:
   0026 12s00r00            428 	lcall	_main
                            429 ;	return from main will lock up
   0029 80 FE               430 	sjmp .
                            431 ;--------------------------------------------------------
                            432 ; code
                            433 ;--------------------------------------------------------
                            434 	.area CSEG    (CODE)
                            435 ;------------------------------------------------------------
                            436 ;Allocation info for local variables in function 'main'
                            437 ;------------------------------------------------------------
                            438 ;n                         Allocated to registers r7 
                            439 ;busy                      Allocated to registers b0 
                            440 ;value                     Allocated to registers r5 r6 
                            441 ;baud_tmp                  Allocated to registers r6 r7 
                            442 ;------------------------------------------------------------
                            443 ;	../fb_rs.c:49: void main(void)
                            444 ;	-----------------------------------------
                            445 ;	 function main
                            446 ;	-----------------------------------------
   0000                     447 _main:
                    0007    448 	ar7 = 0x07
                    0006    449 	ar6 = 0x06
                    0005    450 	ar5 = 0x05
                    0004    451 	ar4 = 0x04
                    0003    452 	ar3 = 0x03
                    0002    453 	ar2 = 0x02
                    0001    454 	ar1 = 0x01
                    0000    455 	ar0 = 0x00
                            456 ;	../fb_rs.c:52: __bit busy=0;
   0000 C2*00               457 	clr	b0
                            458 ;	../fb_rs.c:57: restart_hw();			// Hardware zurücksetzen
   0002 C0*00               459 	push	bits
   0004 12s00r00            460 	lcall	_restart_hw
   0007 D0*00               461 	pop	bits
                            462 ;	../fb_rs.c:58: rs_init(baud);			// serielle Schnittstelle initialisieren, muss hier sein
   0009 90s00r00            463 	mov	dptr,#_baud
   000C E4                  464 	clr	a
   000D 93                  465 	movc	a,@a+dptr
   000E FE                  466 	mov	r6,a
   000F 74 01               467 	mov	a,#0x01
   0011 93                  468 	movc	a,@a+dptr
   0012 FF                  469 	mov	r7,a
   0013 8E 82               470 	mov	dpl,r6
   0015 8F 83               471 	mov	dph,r7
   0017 C0*00               472 	push	bits
   0019 12s00r00            473 	lcall	_rs_init
   001C D0*00               474 	pop	bits
                            475 ;	../fb_rs.c:61: restart_app();			// Anwendungsspezifische Einstellungen zurücksetzen
   001E C0*00               476 	push	bits
   0020 12s00r00            477 	lcall	_restart_app
   0023 D0*00               478 	pop	bits
                            479 ;	../fb_rs.c:63: RXLED=1;
   0025 D2 86               480 	setb	_P0_6
                            481 ;	../fb_rs.c:64: EIBLED=1;
   0027 D2 87               482 	setb	_P0_7
                            483 ;	../fb_rs.c:65: ledcount=0xff;
   0029 75*00 FF            484 	mov	_ledcount,#0xFF
                            485 ;	../fb_rs.c:66: eibledcount=0;
   002C 75*00 00            486 	mov	_eibledcount,#0x00
                            487 ;	../fb_rs.c:67: rxledcount=0;
   002F 75*00 00            488 	mov	_rxledcount,#0x00
                            489 ;	../fb_rs.c:68: rsinpos=0;
   0032 75*00 00            490 	mov	_rsinpos,#0x00
                            491 ;	../fb_rs.c:70: rs_send_s("Kubi's RS-interface V2.01 ");
   0035 90s00r00            492 	mov	dptr,#__str_0
   0038 75 F0 80            493 	mov	b,#0x80
   003B C0*00               494 	push	bits
   003D 12s00r00            495 	lcall	_rs_send_s
   0040 D0*00               496 	pop	bits
                            497 ;	../fb_rs.c:71: if (baud==96 || baud==192 || baud==384 || baud==576) rs_send_dec(baud);
   0042 90s00r00            498 	mov	dptr,#_baud
   0045 E4                  499 	clr	a
   0046 93                  500 	movc	a,@a+dptr
   0047 FE                  501 	mov	r6,a
   0048 74 01               502 	mov	a,#0x01
   004A 93                  503 	movc	a,@a+dptr
   004B FF                  504 	mov	r7,a
   004C BE 60 05            505 	cjne	r6,#0x60,00387$
   004F BF 00 02            506 	cjne	r7,#0x00,00387$
   0052 80 34               507 	sjmp	00101$
   0054                     508 00387$:
   0054 90s00r00            509 	mov	dptr,#_baud
   0057 E4                  510 	clr	a
   0058 93                  511 	movc	a,@a+dptr
   0059 FE                  512 	mov	r6,a
   005A 74 01               513 	mov	a,#0x01
   005C 93                  514 	movc	a,@a+dptr
   005D FF                  515 	mov	r7,a
   005E BE C0 05            516 	cjne	r6,#0xC0,00388$
   0061 BF 00 02            517 	cjne	r7,#0x00,00388$
   0064 80 22               518 	sjmp	00101$
   0066                     519 00388$:
   0066 90s00r00            520 	mov	dptr,#_baud
   0069 E4                  521 	clr	a
   006A 93                  522 	movc	a,@a+dptr
   006B FE                  523 	mov	r6,a
   006C 74 01               524 	mov	a,#0x01
   006E 93                  525 	movc	a,@a+dptr
   006F FF                  526 	mov	r7,a
   0070 BE 80 05            527 	cjne	r6,#0x80,00389$
   0073 BF 01 02            528 	cjne	r7,#0x01,00389$
   0076 80 10               529 	sjmp	00101$
   0078                     530 00389$:
   0078 90s00r00            531 	mov	dptr,#_baud
   007B E4                  532 	clr	a
   007C 93                  533 	movc	a,@a+dptr
   007D FE                  534 	mov	r6,a
   007E 74 01               535 	mov	a,#0x01
   0080 93                  536 	movc	a,@a+dptr
   0081 FF                  537 	mov	r7,a
   0082 BE 40 1A            538 	cjne	r6,#0x40,00102$
   0085 BF 02 17            539 	cjne	r7,#0x02,00102$
   0088                     540 00101$:
   0088 90s00r00            541 	mov	dptr,#_baud
   008B E4                  542 	clr	a
   008C 93                  543 	movc	a,@a+dptr
   008D FE                  544 	mov	r6,a
   008E 74 01               545 	mov	a,#0x01
   0090 93                  546 	movc	a,@a+dptr
   0091 FF                  547 	mov	r7,a
   0092 8E 82               548 	mov	dpl,r6
   0094 8F 83               549 	mov	dph,r7
   0096 C0*00               550 	push	bits
   0098 12s00r00            551 	lcall	_rs_send_dec
   009B D0*00               552 	pop	bits
   009D 80 0D               553 	sjmp	00103$
   009F                     554 00102$:
                            555 ;	../fb_rs.c:72: else rs_send_s("1152");
   009F 90s00r1B            556 	mov	dptr,#__str_1
   00A2 75 F0 80            557 	mov	b,#0x80
   00A5 C0*00               558 	push	bits
   00A7 12s00r00            559 	lcall	_rs_send_s
   00AA D0*00               560 	pop	bits
   00AC                     561 00103$:
                            562 ;	../fb_rs.c:73: rs_send_s("00 Baud.\n");
   00AC 90s00r20            563 	mov	dptr,#__str_2
   00AF 75 F0 80            564 	mov	b,#0x80
   00B2 C0*00               565 	push	bits
   00B4 12s00r00            566 	lcall	_rs_send_s
   00B7 D0*00               567 	pop	bits
                            568 ;	../fb_rs.c:74: watchdog_init();
   00B9 C0*00               569 	push	bits
   00BB 12s00r00            570 	lcall	_watchdog_init
   00BE D0*00               571 	pop	bits
                            572 ;	../fb_rs.c:75: watchdog_start();
   00C0 C0*00               573 	push	bits
   00C2 12s00r00            574 	lcall	_watchdog_start
   00C5 D0*00               575 	pop	bits
                            576 ;	../fb_rs.c:77: if(fm){
   00C7 90s00r00            577 	mov	dptr,#_fm
   00CA E4                  578 	clr	a
   00CB 93                  579 	movc	a,@a+dptr
   00CC FF                  580 	mov	r7,a
   00CD 60 11               581 	jz	00108$
                            582 ;	../fb_rs.c:78: filtermode=1;
   00CF D2*00               583 	setb	_filtermode
                            584 ;	../fb_rs.c:79: rs_send_s("filtered\n");
   00D1 90s00r2A            585 	mov	dptr,#__str_3
   00D4 75 F0 80            586 	mov	b,#0x80
   00D7 C0*00               587 	push	bits
   00D9 12s00r00            588 	lcall	_rs_send_s
   00DC D0*00               589 	pop	bits
   00DE 80 02               590 	sjmp	00258$
   00E0                     591 00108$:
                            592 ;	../fb_rs.c:81: else filtermode=0;
   00E0 C2*00               593 	clr	_filtermode
                            594 ;	../fb_rs.c:83: do  {
   00E2                     595 00258$:
                            596 ;	../fb_rs.c:84: watchdog_feed();
   00E2 C0*00               597 	push	bits
   00E4 12s00r00            598 	lcall	_watchdog_feed
   00E7 D0*00               599 	pop	bits
                            600 ;	../fb_rs.c:85: ledcount--;
                            601 ;	../fb_rs.c:86: if(!ledcount){
   00E9 D5*00 18            602 	djnz	_ledcount,00117$
                            603 ;	../fb_rs.c:87: if(!eibledcount)EIBLED=1;
   00EC E5*00               604 	mov	a,_eibledcount
   00EE 70 04               605 	jnz	00111$
   00F0 D2 87               606 	setb	_P0_7
   00F2 80 04               607 	sjmp	00112$
   00F4                     608 00111$:
                            609 ;	../fb_rs.c:89: eibledcount--;
   00F4 15*00               610 	dec	_eibledcount
                            611 ;	../fb_rs.c:90: EIBLED=0;
   00F6 C2 87               612 	clr	_P0_7
   00F8                     613 00112$:
                            614 ;	../fb_rs.c:92: if(!rxledcount)RXLED=1;
   00F8 E5*00               615 	mov	a,_rxledcount
   00FA 70 04               616 	jnz	00114$
   00FC D2 86               617 	setb	_P0_6
   00FE 80 04               618 	sjmp	00117$
   0100                     619 00114$:
                            620 ;	../fb_rs.c:94: rxledcount--;
   0100 15*00               621 	dec	_rxledcount
                            622 ;	../fb_rs.c:95: RXLED=0;
   0102 C2 86               623 	clr	_P0_6
   0104                     624 00117$:
                            625 ;	../fb_rs.c:98: if(rsin[rsinpos-1]==0x0A) rsinpos--;	// ggf. LF entfernen
   0104 E5*00               626 	mov	a,_rsinpos
   0106 14                  627 	dec	a
   0107 24r00               628 	add	a,#_rsin
   0109 F9                  629 	mov	r1,a
   010A 87 07               630 	mov	ar7,@r1
   010C BF 0A 02            631 	cjne	r7,#0x0A,00119$
   010F 15*00               632 	dec	_rsinpos
   0111                     633 00119$:
                            634 ;	../fb_rs.c:99: if(rsinpos>0 && rsin[rsinpos-1]==0x0D&& !busy)	// CR empfangen
   0111 E5*00               635 	mov	a,_rsinpos
   0113 70 03               636 	jnz	00398$
   0115 02s07r23            637 	ljmp	00248$
   0118                     638 00398$:
   0118 E5*00               639 	mov	a,_rsinpos
   011A 14                  640 	dec	a
   011B 24r00               641 	add	a,#_rsin
   011D F9                  642 	mov	r1,a
   011E 87 07               643 	mov	ar7,@r1
   0120 BF 0D 02            644 	cjne	r7,#0x0D,00399$
   0123 80 03               645 	sjmp	00400$
   0125                     646 00399$:
   0125 02s07r23            647 	ljmp	00248$
   0128                     648 00400$:
   0128 30*00 03            649 	jnb	b0,00401$
   012B 02s07r23            650 	ljmp	00248$
   012E                     651 00401$:
                            652 ;	../fb_rs.c:101: rxledcount=0xff;// * RXLED lang einschalten
   012E 75*00 FF            653 	mov	_rxledcount,#0xFF
                            654 ;	../fb_rs.c:102: if(echo) rs_send(0x0A);
   0131 90s00r00            655 	mov	dptr,#_echo
   0134 E4                  656 	clr	a
   0135 93                  657 	movc	a,@a+dptr
   0136 FF                  658 	mov	r7,a
   0137 60 0A               659 	jz	00121$
   0139 75 82 0A            660 	mov	dpl,#0x0A
   013C C0*00               661 	push	bits
   013E 12s00r00            662 	lcall	_rs_send
   0141 D0*00               663 	pop	bits
   0143                     664 00121$:
                            665 ;	../fb_rs.c:104: if (rsin[0]=='f' && rsin[1]=='b') {	// Magic-word 'fb' empfangen
   0143 74 66               666 	mov	a,#0x66
   0145 B5*00 02            667 	cjne	a,_rsin,00403$
   0148 80 03               668 	sjmp	00404$
   014A                     669 00403$:
   014A 02s07r0D            670 	ljmp	00243$
   014D                     671 00404$:
   014D 74 62               672 	mov	a,#0x62
   014F B5*01 02            673 	cjne	a,(_rsin + 0x0001),00405$
   0152 80 03               674 	sjmp	00406$
   0154                     675 00405$:
   0154 02s07r0D            676 	ljmp	00243$
   0157                     677 00406$:
                            678 ;	../fb_rs.c:105: if(rsin[2]=='s') {		// s=senden oder setzen
   0157 74 73               679 	mov	a,#0x73
   0159 B5*02 02            680 	cjne	a,(_rsin + 0x0002),00407$
   015C 80 03               681 	sjmp	00408$
   015E                     682 00407$:
   015E 02s03r87            683 	ljmp	00181$
   0161                     684 00408$:
                            685 ;	../fb_rs.c:107: if(rsin[3]=='0' && rsin[4]=='1' && rsin[rsinpos-3]=='=' && (rsin[rsinpos-2]=='0' || rsin[rsinpos-2]=='1')) {
   0161 74 30               686 	mov	a,#0x30
   0163 B5*03 33            687 	cjne	a,(_rsin + 0x0003),00123$
   0166 74 31               688 	mov	a,#0x31
   0168 B5*04 2E            689 	cjne	a,(_rsin + 0x0004),00123$
   016B E5*00               690 	mov	a,_rsinpos
   016D 24 FD               691 	add	a,#0xFD
   016F 24r00               692 	add	a,#_rsin
   0171 F9                  693 	mov	r1,a
   0172 87 07               694 	mov	ar7,@r1
   0174 BF 3D 22            695 	cjne	r7,#0x3D,00123$
   0177 E5*00               696 	mov	a,_rsinpos
   0179 24 FE               697 	add	a,#0xFE
   017B 24r00               698 	add	a,#_rsin
   017D F9                  699 	mov	r1,a
   017E 87 07               700 	mov	ar7,@r1
   0180 BF 30 02            701 	cjne	r7,#0x30,00415$
   0183 80 0C               702 	sjmp	00122$
   0185                     703 00415$:
   0185 E5*00               704 	mov	a,_rsinpos
   0187 24 FE               705 	add	a,#0xFE
   0189 24r00               706 	add	a,#_rsin
   018B F9                  707 	mov	r1,a
   018C 87 07               708 	mov	ar7,@r1
   018E BF 31 08            709 	cjne	r7,#0x31,00123$
   0191                     710 00122$:
                            711 ;	../fb_rs.c:108: send_obj_value(1);
   0191 75 82 01            712 	mov	dpl,#0x01
   0194 12s00r00            713 	lcall	_send_obj_value
                            714 ;	../fb_rs.c:109: busy=1;
   0197 D2*00               715 	setb	b0
   0199                     716 00123$:
                            717 ;	../fb_rs.c:113: if(rsin[3]=='0' && rsin[4]=='2' && rsin[rsinpos-4]=='=') {
   0199 74 30               718 	mov	a,#0x30
   019B B5*03 19            719 	cjne	a,(_rsin + 0x0003),00129$
   019E 74 32               720 	mov	a,#0x32
   01A0 B5*04 14            721 	cjne	a,(_rsin + 0x0004),00129$
   01A3 E5*00               722 	mov	a,_rsinpos
   01A5 24 FC               723 	add	a,#0xFC
   01A7 24r00               724 	add	a,#_rsin
   01A9 F9                  725 	mov	r1,a
   01AA 87 07               726 	mov	ar7,@r1
   01AC BF 3D 08            727 	cjne	r7,#0x3D,00129$
                            728 ;	../fb_rs.c:114: send_obj_value(2);
   01AF 75 82 02            729 	mov	dpl,#0x02
   01B2 12s00r00            730 	lcall	_send_obj_value
                            731 ;	../fb_rs.c:115: busy=1;
   01B5 D2*00               732 	setb	b0
   01B7                     733 00129$:
                            734 ;	../fb_rs.c:119: if(rsin[3]=='0' && rsin[4]=='3') {
   01B7 74 30               735 	mov	a,#0x30
   01B9 B5*03 0D            736 	cjne	a,(_rsin + 0x0003),00133$
   01BC 74 33               737 	mov	a,#0x33
   01BE B5*04 08            738 	cjne	a,(_rsin + 0x0004),00133$
                            739 ;	../fb_rs.c:120: send_obj_value(3);
   01C1 75 82 03            740 	mov	dpl,#0x03
   01C4 12s00r00            741 	lcall	_send_obj_value
                            742 ;	../fb_rs.c:121: busy=1;
   01C7 D2*00               743 	setb	b0
   01C9                     744 00133$:
                            745 ;	../fb_rs.c:124: if(rsin[3]=='0' && rsin[4]=='4') {
   01C9 74 30               746 	mov	a,#0x30
   01CB B5*03 0D            747 	cjne	a,(_rsin + 0x0003),00136$
   01CE 74 34               748 	mov	a,#0x34
   01D0 B5*04 08            749 	cjne	a,(_rsin + 0x0004),00136$
                            750 ;	../fb_rs.c:125: send_obj_value(4);
   01D3 75 82 04            751 	mov	dpl,#0x04
   01D6 12s00r00            752 	lcall	_send_obj_value
                            753 ;	../fb_rs.c:126: busy=1;
   01D9 D2*00               754 	setb	b0
   01DB                     755 00136$:
                            756 ;	../fb_rs.c:129: if(rsin[3]=='0' && rsin[4]=='5') {
   01DB 74 30               757 	mov	a,#0x30
   01DD B5*03 0D            758 	cjne	a,(_rsin + 0x0003),00139$
   01E0 74 35               759 	mov	a,#0x35
   01E2 B5*04 08            760 	cjne	a,(_rsin + 0x0004),00139$
                            761 ;	../fb_rs.c:130: send_obj_value(5);
   01E5 75 82 05            762 	mov	dpl,#0x05
   01E8 12s00r00            763 	lcall	_send_obj_value
                            764 ;	../fb_rs.c:131: busy=1;
   01EB D2*00               765 	setb	b0
   01ED                     766 00139$:
                            767 ;	../fb_rs.c:135: if(rsin[3]=='0' && rsin[4]=='6') {
   01ED 74 30               768 	mov	a,#0x30
   01EF B5*03 0D            769 	cjne	a,(_rsin + 0x0003),00142$
   01F2 74 36               770 	mov	a,#0x36
   01F4 B5*04 08            771 	cjne	a,(_rsin + 0x0004),00142$
                            772 ;	../fb_rs.c:136: send_obj_value(6);
   01F7 75 82 06            773 	mov	dpl,#0x06
   01FA 12s00r00            774 	lcall	_send_obj_value
                            775 ;	../fb_rs.c:137: busy=1;
   01FD D2*00               776 	setb	b0
   01FF                     777 00142$:
                            778 ;	../fb_rs.c:141: if(rsin[3]=='1' && rsin[4]=='5') {
   01FF 74 31               779 	mov	a,#0x31
   0201 B5*03 0D            780 	cjne	a,(_rsin + 0x0003),00145$
   0204 74 35               781 	mov	a,#0x35
   0206 B5*04 08            782 	cjne	a,(_rsin + 0x0004),00145$
                            783 ;	../fb_rs.c:142: send_obj_value(15);
   0209 75 82 0F            784 	mov	dpl,#0x0F
   020C 12s00r00            785 	lcall	_send_obj_value
                            786 ;	../fb_rs.c:143: busy=1;
   020F D2*00               787 	setb	b0
   0211                     788 00145$:
                            789 ;	../fb_rs.c:146: if(rsin[3]=='f' && rsin[4]=='a'){
   0211 74 66               790 	mov	a,#0x66
   0213 B5*03 29            791 	cjne	a,(_rsin + 0x0003),00148$
   0216 74 61               792 	mov	a,#0x61
   0218 B5*04 24            793 	cjne	a,(_rsin + 0x0004),00148$
                            794 ;	../fb_rs.c:147: set_filtermode('1');
   021B 75 82 31            795 	mov	dpl,#0x31
   021E C0*00               796 	push	bits
   0220 12s00r00            797 	lcall	_set_filtermode
   0223 D0*00               798 	pop	bits
                            799 ;	../fb_rs.c:148: save_ga(convert_adr(6),0);
   0225 75 82 06            800 	mov	dpl,#0x06
   0228 C0*00               801 	push	bits
   022A 12s00r00            802 	lcall	_convert_adr
   022D D0*00               803 	pop	bits
   022F C0*00               804 	push	bits
   0231 E4                  805 	clr	a
   0232 C0 E0               806 	push	acc
   0234 C0 E0               807 	push	acc
   0236 12s00r00            808 	lcall	_save_ga
   0239 15 81               809 	dec	sp
   023B 15 81               810 	dec	sp
   023D D0*00               811 	pop	bits
                            812 ;	../fb_rs.c:149: send_ok;//rs_send_s("OK\n");
   023F                     813 00148$:
                            814 ;	../fb_rs.c:153: if(rsin[3]=='p' && rsin[4]=='a')
   023F 74 70               815 	mov	a,#0x70
   0241 B5*03 3C            816 	cjne	a,(_rsin + 0x0003),00156$
   0244 74 61               817 	mov	a,#0x61
   0246 B5*04 37            818 	cjne	a,(_rsin + 0x0004),00156$
                            819 ;	../fb_rs.c:155: pa_tmp=convert_adr(5);
   0249 75 82 05            820 	mov	dpl,#0x05
   024C C0*00               821 	push	bits
   024E 12s00r00            822 	lcall	_convert_adr
   0251 85 82*00            823 	mov	_pa_tmp,dpl
   0254 85 83*01            824 	mov	(_pa_tmp + 1),dph
   0257 D0*00               825 	pop	bits
                            826 ;	../fb_rs.c:156: write_ok=0;
   0259 C2*01               827 	clr	_write_ok
                            828 ;	../fb_rs.c:157: while (!write_ok) {
   025B                     829 00152$:
   025B 20*01 1B            830 	jb	_write_ok,00154$
                            831 ;	../fb_rs.c:158: START_WRITECYCLE
   025E 75 E4 00            832 	mov	_FMCON,#0x00
                            833 ;	../fb_rs.c:159: FMADRH = 0x1C;
   0261 75 E7 1C            834 	mov	_FMADRH,#0x1C
                            835 ;	../fb_rs.c:160: FMADRL = 0xFB;
   0264 75 E6 FB            836 	mov	_FMADRL,#0xFB
                            837 ;	../fb_rs.c:161: FMDATA = pa_tmp>>8;
   0267 85*01 E5            838 	mov	_FMDATA,(_pa_tmp + 1)
                            839 ;	../fb_rs.c:162: FMDATA = pa_tmp;
   026A 85*00 E5            840 	mov	_FMDATA,_pa_tmp
                            841 ;	../fb_rs.c:163: STOP_WRITECYCLE
   026D 75 E4 68            842 	mov	_FMCON,#0x68
                            843 ;	../fb_rs.c:164: if(!(FMCON & 0x01)) write_ok=1;	// pruefen, ob erfolgreich geflasht
   0270 E5 E4               844 	mov	a,_FMCON
   0272 20 E0 E6            845 	jb	acc.0,00152$
   0275 D2*01               846 	setb	_write_ok
   0277 80 E2               847 	sjmp	00152$
   0279                     848 00154$:
                            849 ;	../fb_rs.c:166: send_ok();//rs_send_s("OK\n");
   0279 C0*00               850 	push	bits
   027B 12s00r00            851 	lcall	_send_ok
   027E D0*00               852 	pop	bits
   0280                     853 00156$:
                            854 ;	../fb_rs.c:170: if(rsin[3]=='b' && rsin[4]=='r') {
   0280 74 62               855 	mov	a,#0x62
   0282 B5*03 02            856 	cjne	a,(_rsin + 0x0003),00454$
   0285 80 03               857 	sjmp	00455$
   0287                     858 00454$:
   0287 02s03r87            859 	ljmp	00181$
   028A                     860 00455$:
   028A 74 72               861 	mov	a,#0x72
   028C B5*04 02            862 	cjne	a,(_rsin + 0x0004),00456$
   028F 80 03               863 	sjmp	00457$
   0291                     864 00456$:
   0291 02s03r87            865 	ljmp	00181$
   0294                     866 00457$:
                            867 ;	../fb_rs.c:171: baud_tmp=0;
                            868 ;	../fb_rs.c:172: if(rsinpos>9 && rsin[rsinpos-3]=='0' && rsin[rsinpos-2]=='0') {
   0294 E4                  869 	clr	a
   0295 FE                  870 	mov	r6,a
   0296 FF                  871 	mov	r7,a
   0297 E5*00               872 	mov	a,_rsinpos
   0299 24 F6               873 	add	a,#0xff - 0x09
   029B 50 78               874 	jnc	00159$
   029D E5*00               875 	mov	a,_rsinpos
   029F 24 FD               876 	add	a,#0xFD
   02A1 24r00               877 	add	a,#_rsin
   02A3 F9                  878 	mov	r1,a
   02A4 87 05               879 	mov	ar5,@r1
   02A6 BD 30 6C            880 	cjne	r5,#0x30,00159$
   02A9 E5*00               881 	mov	a,_rsinpos
   02AB 24 FE               882 	add	a,#0xFE
   02AD 24r00               883 	add	a,#_rsin
   02AF F9                  884 	mov	r1,a
   02B0 87 05               885 	mov	ar5,@r1
   02B2 BD 30 60            886 	cjne	r5,#0x30,00159$
                            887 ;	../fb_rs.c:173: for(n=5;n<rsinpos-3;n++) {
   02B5 7D 05               888 	mov	r5,#0x05
   02B7                     889 00261$:
   02B7 C0 06               890 	push	ar6
   02B9 C0 07               891 	push	ar7
   02BB AB*00               892 	mov	r3,_rsinpos
   02BD 7C 00               893 	mov	r4,#0x00
   02BF EB                  894 	mov	a,r3
   02C0 24 FD               895 	add	a,#0xFD
   02C2 FB                  896 	mov	r3,a
   02C3 EC                  897 	mov	a,r4
   02C4 34 FF               898 	addc	a,#0xFF
   02C6 FC                  899 	mov	r4,a
   02C7 8D 02               900 	mov	ar2,r5
   02C9 7F 00               901 	mov	r7,#0x00
   02CB C3                  902 	clr	c
   02CC EA                  903 	mov	a,r2
   02CD 9B                  904 	subb	a,r3
   02CE EF                  905 	mov	a,r7
   02CF 64 80               906 	xrl	a,#0x80
   02D1 8C F0               907 	mov	b,r4
   02D3 63 F0 80            908 	xrl	b,#0x80
   02D6 95 F0               909 	subb	a,b
   02D8 D0 07               910 	pop	ar7
   02DA D0 06               911 	pop	ar6
   02DC 50 37               912 	jnc	00159$
                            913 ;	../fb_rs.c:174: baud_tmp*=10;
   02DE C0 05               914 	push	ar5
   02E0 C0*00               915 	push	bits
   02E2 C0 06               916 	push	ar6
   02E4 C0 07               917 	push	ar7
   02E6 90 00 0A            918 	mov	dptr,#0x000A
   02E9 12s00r00            919 	lcall	__mulint
   02EC AB 82               920 	mov	r3,dpl
   02EE AC 83               921 	mov	r4,dph
   02F0 15 81               922 	dec	sp
   02F2 15 81               923 	dec	sp
   02F4 D0*00               924 	pop	bits
   02F6 D0 05               925 	pop	ar5
   02F8 8B 06               926 	mov	ar6,r3
   02FA 8C 07               927 	mov	ar7,r4
                            928 ;	../fb_rs.c:175: baud_tmp+=rsin[n]-48;
   02FC ED                  929 	mov	a,r5
   02FD 24r00               930 	add	a,#_rsin
   02FF F9                  931 	mov	r1,a
   0300 87 04               932 	mov	ar4,@r1
   0302 7B 00               933 	mov	r3,#0x00
   0304 EC                  934 	mov	a,r4
   0305 24 D0               935 	add	a,#0xD0
   0307 FC                  936 	mov	r4,a
   0308 EB                  937 	mov	a,r3
   0309 34 FF               938 	addc	a,#0xFF
   030B FB                  939 	mov	r3,a
   030C EC                  940 	mov	a,r4
   030D 2E                  941 	add	a,r6
   030E FE                  942 	mov	r6,a
   030F EB                  943 	mov	a,r3
   0310 3F                  944 	addc	a,r7
   0311 FF                  945 	mov	r7,a
                            946 ;	../fb_rs.c:173: for(n=5;n<rsinpos-3;n++) {
   0312 0D                  947 	inc	r5
   0313 80 A2               948 	sjmp	00261$
   0315                     949 00159$:
                            950 ;	../fb_rs.c:178: if (baud_tmp==96 || baud_tmp==192 || baud_tmp==384 || baud_tmp==576 || baud_tmp==1152) {
   0315 BE 60 05            951 	cjne	r6,#0x60,00464$
   0318 BF 00 02            952 	cjne	r7,#0x00,00464$
   031B 80 1E               953 	sjmp	00170$
   031D                     954 00464$:
   031D BE C0 05            955 	cjne	r6,#0xC0,00465$
   0320 BF 00 02            956 	cjne	r7,#0x00,00465$
   0323 80 16               957 	sjmp	00170$
   0325                     958 00465$:
   0325 BE 80 05            959 	cjne	r6,#0x80,00466$
   0328 BF 01 02            960 	cjne	r7,#0x01,00466$
   032B 80 0E               961 	sjmp	00170$
   032D                     962 00466$:
   032D BE 40 05            963 	cjne	r6,#0x40,00467$
   0330 BF 02 02            964 	cjne	r7,#0x02,00467$
   0333 80 06               965 	sjmp	00170$
   0335                     966 00467$:
   0335 BE 80 42            967 	cjne	r6,#0x80,00171$
   0338 BF 04 3F            968 	cjne	r7,#0x04,00171$
   033B                     969 00170$:
                            970 ;	../fb_rs.c:179: send_ok();//rs_send_s("OK\n");
   033B C0 07               971 	push	ar7
   033D C0 06               972 	push	ar6
   033F C0*00               973 	push	bits
   0341 12s00r00            974 	lcall	_send_ok
   0344 D0*00               975 	pop	bits
   0346 D0 06               976 	pop	ar6
   0348 D0 07               977 	pop	ar7
                            978 ;	../fb_rs.c:180: write_ok=0;
   034A C2*01               979 	clr	_write_ok
                            980 ;	../fb_rs.c:181: while (!write_ok) {
   034C 8F 05               981 	mov	ar5,r7
   034E                     982 00164$:
   034E 20*01 19            983 	jb	_write_ok,00167$
                            984 ;	../fb_rs.c:182: START_WRITECYCLE
   0351 75 E4 00            985 	mov	_FMCON,#0x00
                            986 ;	../fb_rs.c:183: FMADRH = 0x1C;
   0354 75 E7 1C            987 	mov	_FMADRH,#0x1C
                            988 ;	../fb_rs.c:184: FMADRL = 0xFE;
   0357 75 E6 FE            989 	mov	_FMADRL,#0xFE
                            990 ;	../fb_rs.c:185: FMDATA = baud_tmp;		// LSB
   035A 8E E5               991 	mov	_FMDATA,r6
                            992 ;	../fb_rs.c:186: FMDATA = baud_tmp>>8;	// MSB
   035C 8D E5               993 	mov	_FMDATA,r5
                            994 ;	../fb_rs.c:187: STOP_WRITECYCLE
   035E 75 E4 68            995 	mov	_FMCON,#0x68
                            996 ;	../fb_rs.c:188: if(!(FMCON & 0x01)) write_ok=1;	// pruefen, ob erfolgreich geflasht
   0361 E5 E4               997 	mov	a,_FMCON
   0363 20 E0 E8            998 	jb	acc.0,00164$
   0366 D2*01               999 	setb	_write_ok
                           1000 ;	../fb_rs.c:190: while(!TI);
   0368 80 E4              1001 	sjmp	00164$
   036A                    1002 00167$:
   036A 30 99 FD           1003 	jnb	_SCON_1,00167$
                           1004 ;	../fb_rs.c:191: rs_init(baud_tmp);
   036D 8E 82              1005 	mov	dpl,r6
   036F 8F 83              1006 	mov	dph,r7
   0371 C0*00              1007 	push	bits
   0373 12s00r00           1008 	lcall	_rs_init
   0376 D0*00              1009 	pop	bits
   0378 80 0D              1010 	sjmp	00181$
   037A                    1011 00171$:
                           1012 ;	../fb_rs.c:194: rs_send_s("error: unknown baudrate!\n");
   037A 90s00r34           1013 	mov	dptr,#__str_4
   037D 75 F0 80           1014 	mov	b,#0x80
   0380 C0*00              1015 	push	bits
   0382 12s00r00           1016 	lcall	_rs_send_s
   0385 D0*00              1017 	pop	bits
   0387                    1018 00181$:
                           1019 ;	../fb_rs.c:202: if(rsin[2]=='r') {	// r=read
   0387 74 72              1020 	mov	a,#0x72
   0389 B5*02 02           1021 	cjne	a,(_rsin + 0x0002),00473$
   038C 80 03              1022 	sjmp	00474$
   038E                    1023 00473$:
   038E 02s04r85           1024 	ljmp	00197$
   0391                    1025 00474$:
                           1026 ;	../fb_rs.c:205: if(rsin[3]=='p' && rsin[4]=='a')
   0391 74 70              1027 	mov	a,#0x70
   0393 B5*03 6C           1028 	cjne	a,(_rsin + 0x0003),00183$
   0396 74 61              1029 	mov	a,#0x61
   0398 B5*04 67           1030 	cjne	a,(_rsin + 0x0004),00183$
                           1031 ;	../fb_rs.c:207: rs_send_dec(pa_h>>4);
   039B 90s00r00           1032 	mov	dptr,#_pa_h
   039E E4                 1033 	clr	a
   039F 93                 1034 	movc	a,@a+dptr
   03A0 C4                 1035 	swap	a
   03A1 54 0F              1036 	anl	a,#0x0F
   03A3 FF                 1037 	mov	r7,a
   03A4 7E 00              1038 	mov	r6,#0x00
   03A6 8F 82              1039 	mov	dpl,r7
   03A8 8E 83              1040 	mov	dph,r6
   03AA C0*00              1041 	push	bits
   03AC 12s00r00           1042 	lcall	_rs_send_dec
   03AF D0*00              1043 	pop	bits
                           1044 ;	../fb_rs.c:208: rs_send('.');
   03B1 75 82 2E           1045 	mov	dpl,#0x2E
   03B4 C0*00              1046 	push	bits
   03B6 12s00r00           1047 	lcall	_rs_send
   03B9 D0*00              1048 	pop	bits
                           1049 ;	../fb_rs.c:209: rs_send_dec(pa_h&0x0F);
   03BB 90s00r00           1050 	mov	dptr,#_pa_h
   03BE E4                 1051 	clr	a
   03BF 93                 1052 	movc	a,@a+dptr
   03C0 FF                 1053 	mov	r7,a
   03C1 53 07 0F           1054 	anl	ar7,#0x0F
   03C4 7E 00              1055 	mov	r6,#0x00
   03C6 8F 82              1056 	mov	dpl,r7
   03C8 8E 83              1057 	mov	dph,r6
   03CA C0*00              1058 	push	bits
   03CC 12s00r00           1059 	lcall	_rs_send_dec
   03CF D0*00              1060 	pop	bits
                           1061 ;	../fb_rs.c:210: rs_send('.');
   03D1 75 82 2E           1062 	mov	dpl,#0x2E
   03D4 C0*00              1063 	push	bits
   03D6 12s00r00           1064 	lcall	_rs_send
   03D9 D0*00              1065 	pop	bits
                           1066 ;	../fb_rs.c:211: rs_send_dec(pa_l);
   03DB 90s00r00           1067 	mov	dptr,#_pa_l
   03DE E4                 1068 	clr	a
   03DF 93                 1069 	movc	a,@a+dptr
   03E0 FF                 1070 	mov	r7,a
   03E1 7E 00              1071 	mov	r6,#0x00
   03E3 8F 82              1072 	mov	dpl,r7
   03E5 8E 83              1073 	mov	dph,r6
   03E7 C0*00              1074 	push	bits
   03E9 12s00r00           1075 	lcall	_rs_send_dec
   03EC D0*00              1076 	pop	bits
                           1077 ;	../fb_rs.c:212: rs_send(0x0D);
   03EE 75 82 0D           1078 	mov	dpl,#0x0D
   03F1 C0*00              1079 	push	bits
   03F3 12s00r00           1080 	lcall	_rs_send
   03F6 D0*00              1081 	pop	bits
                           1082 ;	../fb_rs.c:213: rs_send(0x0A);
   03F8 75 82 0A           1083 	mov	dpl,#0x0A
   03FB C0*00              1084 	push	bits
   03FD 12s00r00           1085 	lcall	_rs_send
   0400 D0*00              1086 	pop	bits
   0402                    1087 00183$:
                           1088 ;	../fb_rs.c:217: if(rsin[3]=='g' && rsin[4]=='a') {
   0402 74 67              1089 	mov	a,#0x67
   0404 B5*03 6C           1090 	cjne	a,(_rsin + 0x0003),00191$
   0407 74 61              1091 	mov	a,#0x61
   0409 B5*04 67           1092 	cjne	a,(_rsin + 0x0004),00191$
                           1093 ;	../fb_rs.c:218: groupadr=convert_adr(5);
   040C 75 82 05           1094 	mov	dpl,#0x05
   040F C0*00              1095 	push	bits
   0411 12s00r00           1096 	lcall	_convert_adr
   0414 85 82*00           1097 	mov	_groupadr,dpl
   0417 85 83*01           1098 	mov	(_groupadr + 1),dph
   041A D0*00              1099 	pop	bits
                           1100 ;	../fb_rs.c:219: n=0;
   041C 7F 00              1101 	mov	r7,#0x00
                           1102 ;	../fb_rs.c:220: value=0xFFFF;
   041E 7D FF              1103 	mov	r5,#0xFF
   0420 7E FF              1104 	mov	r6,#0xFF
                           1105 ;	../fb_rs.c:221: do {								// Wert der GA aus Flash lesen
   0422                    1106 00187$:
                           1107 ;	../fb_rs.c:222: if(ga_db[n].ga==groupadr) {
   0422 EF                 1108 	mov	a,r7
   0423 2F                 1109 	add	a,r7
   0424 25 E0              1110 	add	a,acc
   0426 FC                 1111 	mov	r4,a
   0427 F5 82              1112 	mov	dpl,a
   0429 75 83s00           1113 	mov	dph,#(_ga_db >> 8)
   042C E4                 1114 	clr	a
   042D 93                 1115 	movc	a,@a+dptr
   042E FA                 1116 	mov	r2,a
   042F A3                 1117 	inc	dptr
   0430 E4                 1118 	clr	a
   0431 93                 1119 	movc	a,@a+dptr
   0432 FB                 1120 	mov	r3,a
   0433 EA                 1121 	mov	a,r2
   0434 B5*00 19           1122 	cjne	a,_groupadr,00186$
   0437 EB                 1123 	mov	a,r3
   0438 B5*01 15           1124 	cjne	a,(_groupadr + 1),00186$
                           1125 ;	../fb_rs.c:223: value=ga_db[n].val;
   043B 7Bs00              1126 	mov	r3,#(_ga_db >> 8)
   043D 8C 82              1127 	mov	dpl,r4
   043F 8B 83              1128 	mov	dph,r3
   0441 A3                 1129 	inc	dptr
   0442 A3                 1130 	inc	dptr
   0443 E4                 1131 	clr	a
   0444 93                 1132 	movc	a,@a+dptr
   0445 FB                 1133 	mov	r3,a
   0446 A3                 1134 	inc	dptr
   0447 E4                 1135 	clr	a
   0448 93                 1136 	movc	a,@a+dptr
   0449 FC                 1137 	mov	r4,a
   044A 8B 05              1138 	mov	ar5,r3
   044C 8C 06              1139 	mov	ar6,r4
                           1140 ;	../fb_rs.c:224: n=255;
   044E 7F FF              1141 	mov	r7,#0xFF
   0450                    1142 00186$:
                           1143 ;	../fb_rs.c:226: n++;
   0450 0F                 1144 	inc	r7
                           1145 ;	../fb_rs.c:227: }while (n>0);
   0451 EF                 1146 	mov	a,r7
   0452 70 CE              1147 	jnz	00187$
                           1148 ;	../fb_rs.c:228: rs_send_dec(value);
   0454 8D 82              1149 	mov	dpl,r5
   0456 8E 83              1150 	mov	dph,r6
   0458 C0*00              1151 	push	bits
   045A 12s00r00           1152 	lcall	_rs_send_dec
   045D D0*00              1153 	pop	bits
                           1154 ;	../fb_rs.c:229: rs_send(13);
   045F 75 82 0D           1155 	mov	dpl,#0x0D
   0462 C0*00              1156 	push	bits
   0464 12s00r00           1157 	lcall	_rs_send
   0467 D0*00              1158 	pop	bits
                           1159 ;	../fb_rs.c:230: rs_send(10);
   0469 75 82 0A           1160 	mov	dpl,#0x0A
   046C C0*00              1161 	push	bits
   046E 12s00r00           1162 	lcall	_rs_send
   0471 D0*00              1163 	pop	bits
   0473                    1164 00191$:
                           1165 ;	../fb_rs.c:234: if(rsin[3]=='v' && rsin[4]=='a') {
   0473 74 76              1166 	mov	a,#0x76
   0475 B5*03 0D           1167 	cjne	a,(_rsin + 0x0003),00197$
   0478 74 61              1168 	mov	a,#0x61
   047A B5*04 08           1169 	cjne	a,(_rsin + 0x0004),00197$
                           1170 ;	../fb_rs.c:235: send_obj_value(16);
   047D 75 82 10           1171 	mov	dpl,#0x10
   0480 12s00r00           1172 	lcall	_send_obj_value
                           1173 ;	../fb_rs.c:236: busy=1;
   0483 D2*00              1174 	setb	b0
   0485                    1175 00197$:
                           1176 ;	../fb_rs.c:239: if(rsin[2]=='k'&& rsin[3]=='a'){// kill all
   0485 74 6B              1177 	mov	a,#0x6B
   0487 B5*02 48           1178 	cjne	a,(_rsin + 0x0002),00207$
   048A 74 61              1179 	mov	a,#0x61
   048C B5*03 43           1180 	cjne	a,(_rsin + 0x0003),00207$
                           1181 ;	../fb_rs.c:240: set_filtermode('0');
   048F 75 82 30           1182 	mov	dpl,#0x30
   0492 C0*00              1183 	push	bits
   0494 12s00r00           1184 	lcall	_set_filtermode
   0497 D0*00              1185 	pop	bits
                           1186 ;	../fb_rs.c:242: do {								// GA Tabelle löschen
   0499 7F 00              1187 	mov	r7,#0x00
   049B                    1188 00203$:
                           1189 ;	../fb_rs.c:243: write_ok=0; 
   049B C2*01              1190 	clr	_write_ok
                           1191 ;	../fb_rs.c:244: while (!write_ok) {
   049D EF                 1192 	mov	a,r7
   049E 2F                 1193 	add	a,r7
   049F 25 E0              1194 	add	a,acc
   04A1 FE                 1195 	mov	r6,a
   04A2                    1196 00200$:
   04A2 20*01 20           1197 	jb	_write_ok,00202$
                           1198 ;	../fb_rs.c:245: START_WRITECYCLE
   04A5 75 E4 00           1199 	mov	_FMCON,#0x00
                           1200 ;	../fb_rs.c:246: FMADRH = 0x1D;//(n >> 6) + 0x1D;
   04A8 75 E7 1D           1201 	mov	_FMADRH,#0x1D
                           1202 ;	../fb_rs.c:247: FMADRL = n*4;//((n & 0x3F) * 4);
   04AB 8E E6              1203 	mov	_FMADRL,r6
                           1204 ;	../fb_rs.c:248: FMDATA=0xFF;					// High Byte GA schreiben
   04AD 75 E5 FF           1205 	mov	_FMDATA,#0xFF
                           1206 ;	../fb_rs.c:249: FMDATA=0xFF;					// Low Byte GA schreiben
   04B0 75 E5 FF           1207 	mov	_FMDATA,#0xFF
                           1208 ;	../fb_rs.c:250: FMDATA=0xFF;					// Wert
   04B3 75 E5 FF           1209 	mov	_FMDATA,#0xFF
                           1210 ;	../fb_rs.c:251: FMDATA=0xFF;
   04B6 75 E5 FF           1211 	mov	_FMDATA,#0xFF
                           1212 ;	../fb_rs.c:252: STOP_WRITECYCLE
   04B9 75 E4 68           1213 	mov	_FMCON,#0x68
                           1214 ;	../fb_rs.c:253: if(!(FMCON & 0x01)) write_ok=1;	// pruefen, ob erfolgreich geflasht
   04BC E5 E4              1215 	mov	a,_FMCON
   04BE 20 E0 E1           1216 	jb	acc.0,00200$
   04C1 D2*01              1217 	setb	_write_ok
   04C3 80 DD              1218 	sjmp	00200$
   04C5                    1219 00202$:
                           1220 ;	../fb_rs.c:255: n++;
   04C5 0F                 1221 	inc	r7
                           1222 ;	../fb_rs.c:256: }while(n<=62);
   04C6 EF                 1223 	mov	a,r7
   04C7 24 C1              1224 	add	a,#0xff - 0x3E
   04C9 50 D0              1225 	jnc	00203$
                           1226 ;	../fb_rs.c:257: send_ok();//rs_send_s("OK\n");
   04CB C0*00              1227 	push	bits
   04CD 12s00r00           1228 	lcall	_send_ok
   04D0 D0*00              1229 	pop	bits
   04D2                    1230 00207$:
                           1231 ;	../fb_rs.c:259: if(rsin[2]=='d' && rsin[3]=='u'  && rsinpos==7) {
   04D2 74 64              1232 	mov	a,#0x64
   04D4 B5*02 02           1233 	cjne	a,(_rsin + 0x0002),00497$
   04D7 80 03              1234 	sjmp	00498$
   04D9                    1235 00497$:
   04D9 02s05r7B           1236 	ljmp	00213$
   04DC                    1237 00498$:
   04DC 74 75              1238 	mov	a,#0x75
   04DE B5*03 02           1239 	cjne	a,(_rsin + 0x0003),00499$
   04E1 80 03              1240 	sjmp	00500$
   04E3                    1241 00499$:
   04E3 02s05r7B           1242 	ljmp	00213$
   04E6                    1243 00500$:
   04E6 74 07              1244 	mov	a,#0x07
   04E8 B5*00 02           1245 	cjne	a,_rsinpos,00501$
   04EB 80 03              1246 	sjmp	00502$
   04ED                    1247 00501$:
   04ED 02s05r7B           1248 	ljmp	00213$
   04F0                    1249 00502$:
                           1250 ;	../fb_rs.c:261: while(n<=61) {
   04F0 7F 00              1251 	mov	r7,#0x00
   04F2                    1252 00209$:
   04F2 EF                 1253 	mov	a,r7
   04F3 24 C2              1254 	add	a,#0xff - 0x3D
   04F5 50 03              1255 	jnc	00503$
   04F7 02s05r7B           1256 	ljmp	00213$
   04FA                    1257 00503$:
                           1258 ;	../fb_rs.c:262: rs_send_hex(n);
   04FA 8F 82              1259 	mov	dpl,r7
   04FC C0 07              1260 	push	ar7
   04FE C0*00              1261 	push	bits
   0500 12s00r00           1262 	lcall	_rs_send_hex
   0503 D0*00              1263 	pop	bits
                           1264 ;	../fb_rs.c:263: rs_send(':');
   0505 75 82 3A           1265 	mov	dpl,#0x3A
   0508 C0*00              1266 	push	bits
   050A 12s00r00           1267 	lcall	_rs_send
   050D D0*00              1268 	pop	bits
                           1269 ;	../fb_rs.c:264: rs_send(' ');
   050F 75 82 20           1270 	mov	dpl,#0x20
   0512 C0*00              1271 	push	bits
   0514 12s00r00           1272 	lcall	_rs_send
   0517 D0*00              1273 	pop	bits
   0519 D0 07              1274 	pop	ar7
                           1275 ;	../fb_rs.c:265: rs_send_hex_i(ga_db[n].ga);
   051B EF                 1276 	mov	a,r7
   051C 2F                 1277 	add	a,r7
   051D 25 E0              1278 	add	a,acc
   051F FE                 1279 	mov	r6,a
   0520 F5 82              1280 	mov	dpl,a
   0522 75 83s00           1281 	mov	dph,#(_ga_db >> 8)
   0525 E4                 1282 	clr	a
   0526 93                 1283 	movc	a,@a+dptr
   0527 FC                 1284 	mov	r4,a
   0528 A3                 1285 	inc	dptr
   0529 E4                 1286 	clr	a
   052A 93                 1287 	movc	a,@a+dptr
   052B FD                 1288 	mov	r5,a
   052C 8C 82              1289 	mov	dpl,r4
   052E 8D 83              1290 	mov	dph,r5
   0530 C0 07              1291 	push	ar7
   0532 C0 06              1292 	push	ar6
   0534 C0*00              1293 	push	bits
   0536 12s00r00           1294 	lcall	_rs_send_hex_i
   0539 D0*00              1295 	pop	bits
                           1296 ;	../fb_rs.c:266: rs_send(' ');
   053B 75 82 20           1297 	mov	dpl,#0x20
   053E C0*00              1298 	push	bits
   0540 12s00r00           1299 	lcall	_rs_send
   0543 D0*00              1300 	pop	bits
   0545 D0 06              1301 	pop	ar6
                           1302 ;	../fb_rs.c:267: rs_send_hex_i(ga_db[n].val);
   0547 7Ds00              1303 	mov	r5,#(_ga_db >> 8)
   0549 8E 82              1304 	mov	dpl,r6
   054B 8D 83              1305 	mov	dph,r5
   054D A3                 1306 	inc	dptr
   054E A3                 1307 	inc	dptr
   054F E4                 1308 	clr	a
   0550 93                 1309 	movc	a,@a+dptr
   0551 FD                 1310 	mov	r5,a
   0552 A3                 1311 	inc	dptr
   0553 E4                 1312 	clr	a
   0554 93                 1313 	movc	a,@a+dptr
   0555 FE                 1314 	mov	r6,a
   0556 8D 82              1315 	mov	dpl,r5
   0558 8E 83              1316 	mov	dph,r6
   055A C0*00              1317 	push	bits
   055C 12s00r00           1318 	lcall	_rs_send_hex_i
   055F D0*00              1319 	pop	bits
                           1320 ;	../fb_rs.c:268: rs_send(13);
   0561 75 82 0D           1321 	mov	dpl,#0x0D
   0564 C0*00              1322 	push	bits
   0566 12s00r00           1323 	lcall	_rs_send
   0569 D0*00              1324 	pop	bits
                           1325 ;	../fb_rs.c:269: rs_send(10);
   056B 75 82 0A           1326 	mov	dpl,#0x0A
   056E C0*00              1327 	push	bits
   0570 12s00r00           1328 	lcall	_rs_send
   0573 D0*00              1329 	pop	bits
   0575 D0 07              1330 	pop	ar7
                           1331 ;	../fb_rs.c:270: n++;
   0577 0F                 1332 	inc	r7
   0578 02s04rF2           1333 	ljmp	00209$
   057B                    1334 00213$:
                           1335 ;	../fb_rs.c:275: if(rsin[2]=='l' && rsin[3]=='i'  && rsinpos==7) {
   057B 74 6C              1336 	mov	a,#0x6C
   057D B5*02 02           1337 	cjne	a,(_rsin + 0x0002),00504$
   0580 80 03              1338 	sjmp	00505$
   0582                    1339 00504$:
   0582 02s06rA6           1340 	ljmp	00221$
   0585                    1341 00505$:
   0585 74 69              1342 	mov	a,#0x69
   0587 B5*03 02           1343 	cjne	a,(_rsin + 0x0003),00506$
   058A 80 03              1344 	sjmp	00507$
   058C                    1345 00506$:
   058C 02s06rA6           1346 	ljmp	00221$
   058F                    1347 00507$:
   058F 74 07              1348 	mov	a,#0x07
   0591 B5*00 02           1349 	cjne	a,_rsinpos,00508$
   0594 80 03              1350 	sjmp	00509$
   0596                    1351 00508$:
   0596 02s06rA6           1352 	ljmp	00221$
   0599                    1353 00509$:
                           1354 ;	../fb_rs.c:277: while(n<=61&& ga_db[n].ga<0xFFFF) {
   0599 7F 00              1355 	mov	r7,#0x00
   059B                    1356 00217$:
   059B EF                 1357 	mov	a,r7
   059C 24 C2              1358 	add	a,#0xff - 0x3D
   059E 50 03              1359 	jnc	00510$
   05A0 02s06r9F           1360 	ljmp	00219$
   05A3                    1361 00510$:
   05A3 EF                 1362 	mov	a,r7
   05A4 2F                 1363 	add	a,r7
   05A5 25 E0              1364 	add	a,acc
   05A7 FE                 1365 	mov	r6,a
   05A8 F5 82              1366 	mov	dpl,a
   05AA 75 83s00           1367 	mov	dph,#(_ga_db >> 8)
   05AD E4                 1368 	clr	a
   05AE 93                 1369 	movc	a,@a+dptr
   05AF FC                 1370 	mov	r4,a
   05B0 A3                 1371 	inc	dptr
   05B1 E4                 1372 	clr	a
   05B2 93                 1373 	movc	a,@a+dptr
   05B3 FD                 1374 	mov	r5,a
   05B4 C3                 1375 	clr	c
   05B5 EC                 1376 	mov	a,r4
   05B6 94 FF              1377 	subb	a,#0xFF
   05B8 ED                 1378 	mov	a,r5
   05B9 94 FF              1379 	subb	a,#0xFF
   05BB 40 03              1380 	jc	00511$
   05BD 02s06r9F           1381 	ljmp	00219$
   05C0                    1382 00511$:
                           1383 ;	../fb_rs.c:278: rs_send_dec(((ga_db[n].ga)>>11)&0x0F);
   05C0 8E 82              1384 	mov	dpl,r6
   05C2 75 83s00           1385 	mov	dph,#(_ga_db >> 8)
   05C5 E4                 1386 	clr	a
   05C6 93                 1387 	movc	a,@a+dptr
   05C7 A3                 1388 	inc	dptr
   05C8 E4                 1389 	clr	a
   05C9 93                 1390 	movc	a,@a+dptr
   05CA C4                 1391 	swap	a
   05CB 23                 1392 	rl	a
   05CC 54 1F              1393 	anl	a,#0x1F
   05CE FC                 1394 	mov	r4,a
   05CF 74 0F              1395 	mov	a,#0x0F
   05D1 5C                 1396 	anl	a,r4
   05D2 F5 82              1397 	mov	dpl,a
   05D4 75 83 00           1398 	mov	dph,#0x00
   05D7 C0 07              1399 	push	ar7
   05D9 C0 06              1400 	push	ar6
   05DB C0*00              1401 	push	bits
   05DD 12s00r00           1402 	lcall	_rs_send_dec
   05E0 D0*00              1403 	pop	bits
                           1404 ;	../fb_rs.c:279: rs_send('/');
   05E2 75 82 2F           1405 	mov	dpl,#0x2F
   05E5 C0*00              1406 	push	bits
   05E7 12s00r00           1407 	lcall	_rs_send
   05EA D0*00              1408 	pop	bits
   05EC D0 06              1409 	pop	ar6
                           1410 ;	../fb_rs.c:280: rs_send_dec(((ga_db[n].ga)>>8)&0x07);
   05EE 8E 82              1411 	mov	dpl,r6
   05F0 75 83s00           1412 	mov	dph,#(_ga_db >> 8)
   05F3 E4                 1413 	clr	a
   05F4 93                 1414 	movc	a,@a+dptr
   05F5 A3                 1415 	inc	dptr
   05F6 E4                 1416 	clr	a
   05F7 93                 1417 	movc	a,@a+dptr
   05F8 FC                 1418 	mov	r4,a
   05F9 74 07              1419 	mov	a,#0x07
   05FB 5C                 1420 	anl	a,r4
   05FC F5 82              1421 	mov	dpl,a
   05FE 75 83 00           1422 	mov	dph,#0x00
   0601 C0 06              1423 	push	ar6
   0603 C0*00              1424 	push	bits
   0605 12s00r00           1425 	lcall	_rs_send_dec
   0608 D0*00              1426 	pop	bits
                           1427 ;	../fb_rs.c:281: rs_send('/');
   060A 75 82 2F           1428 	mov	dpl,#0x2F
   060D C0*00              1429 	push	bits
   060F 12s00r00           1430 	lcall	_rs_send
   0612 D0*00              1431 	pop	bits
   0614 D0 06              1432 	pop	ar6
                           1433 ;	../fb_rs.c:282: rs_send_dec((ga_db[n].ga)&0xFF);
   0616 8E 82              1434 	mov	dpl,r6
   0618 75 83s00           1435 	mov	dph,#(_ga_db >> 8)
   061B E4                 1436 	clr	a
   061C 93                 1437 	movc	a,@a+dptr
   061D FC                 1438 	mov	r4,a
   061E A3                 1439 	inc	dptr
   061F E4                 1440 	clr	a
   0620 93                 1441 	movc	a,@a+dptr
   0621 8C 82              1442 	mov	dpl,r4
   0623 75 83 00           1443 	mov	dph,#0x00
   0626 C0 06              1444 	push	ar6
   0628 C0*00              1445 	push	bits
   062A 12s00r00           1446 	lcall	_rs_send_dec
   062D D0*00              1447 	pop	bits
                           1448 ;	../fb_rs.c:283: rs_send_s("= hex");
   062F 90s00r4E           1449 	mov	dptr,#__str_5
   0632 75 F0 80           1450 	mov	b,#0x80
   0635 C0*00              1451 	push	bits
   0637 12s00r00           1452 	lcall	_rs_send_s
   063A D0*00              1453 	pop	bits
   063C D0 06              1454 	pop	ar6
                           1455 ;	../fb_rs.c:284: rs_send_hex_i(ga_db[n].val);
   063E 8E 04              1456 	mov	ar4,r6
   0640 7Ds00              1457 	mov	r5,#(_ga_db >> 8)
   0642 8C 82              1458 	mov	dpl,r4
   0644 8D 83              1459 	mov	dph,r5
   0646 A3                 1460 	inc	dptr
   0647 A3                 1461 	inc	dptr
   0648 E4                 1462 	clr	a
   0649 93                 1463 	movc	a,@a+dptr
   064A FC                 1464 	mov	r4,a
   064B A3                 1465 	inc	dptr
   064C E4                 1466 	clr	a
   064D 93                 1467 	movc	a,@a+dptr
   064E FD                 1468 	mov	r5,a
   064F 8C 82              1469 	mov	dpl,r4
   0651 8D 83              1470 	mov	dph,r5
   0653 C0 06              1471 	push	ar6
   0655 C0*00              1472 	push	bits
   0657 12s00r00           1473 	lcall	_rs_send_hex_i
   065A D0*00              1474 	pop	bits
                           1475 ;	../fb_rs.c:285: rs_send_s(" dec ");
   065C 90s00r54           1476 	mov	dptr,#__str_6
   065F 75 F0 80           1477 	mov	b,#0x80
   0662 C0*00              1478 	push	bits
   0664 12s00r00           1479 	lcall	_rs_send_s
   0667 D0*00              1480 	pop	bits
   0669 D0 06              1481 	pop	ar6
                           1482 ;	../fb_rs.c:286: rs_send_dec(ga_db[n].val);
   066B 7Ds00              1483 	mov	r5,#(_ga_db >> 8)
   066D 8E 82              1484 	mov	dpl,r6
   066F 8D 83              1485 	mov	dph,r5
   0671 A3                 1486 	inc	dptr
   0672 A3                 1487 	inc	dptr
   0673 E4                 1488 	clr	a
   0674 93                 1489 	movc	a,@a+dptr
   0675 FD                 1490 	mov	r5,a
   0676 A3                 1491 	inc	dptr
   0677 E4                 1492 	clr	a
   0678 93                 1493 	movc	a,@a+dptr
   0679 FE                 1494 	mov	r6,a
   067A 8D 82              1495 	mov	dpl,r5
   067C 8E 83              1496 	mov	dph,r6
   067E C0*00              1497 	push	bits
   0680 12s00r00           1498 	lcall	_rs_send_dec
   0683 D0*00              1499 	pop	bits
                           1500 ;	../fb_rs.c:287: rs_send(13);
   0685 75 82 0D           1501 	mov	dpl,#0x0D
   0688 C0*00              1502 	push	bits
   068A 12s00r00           1503 	lcall	_rs_send
   068D D0*00              1504 	pop	bits
                           1505 ;	../fb_rs.c:288: rs_send(10);
   068F 75 82 0A           1506 	mov	dpl,#0x0A
   0692 C0*00              1507 	push	bits
   0694 12s00r00           1508 	lcall	_rs_send
   0697 D0*00              1509 	pop	bits
   0699 D0 07              1510 	pop	ar7
                           1511 ;	../fb_rs.c:289: n++;
   069B 0F                 1512 	inc	r7
   069C 02s05r9B           1513 	ljmp	00217$
   069F                    1514 00219$:
                           1515 ;	../fb_rs.c:291: send_ok();//rs_send_s("OK\n");
   069F C0*00              1516 	push	bits
   06A1 12s00r00           1517 	lcall	_send_ok
   06A4 D0*00              1518 	pop	bits
   06A6                    1519 00221$:
                           1520 ;	../fb_rs.c:293: if(rsin[2]=='f'&& rsin[3]=='m'){// filter mode 1/0
   06A6 74 66              1521 	mov	a,#0x66
   06A8 B5*02 16           1522 	cjne	a,(_rsin + 0x0002),00225$
   06AB 74 6D              1523 	mov	a,#0x6D
   06AD B5*03 11           1524 	cjne	a,(_rsin + 0x0003),00225$
                           1525 ;	../fb_rs.c:294: set_filtermode(rsin[5]);
   06B0 85*05 82           1526 	mov	dpl,(_rsin + 0x0005)
   06B3 C0*00              1527 	push	bits
   06B5 12s00r00           1528 	lcall	_set_filtermode
   06B8 D0*00              1529 	pop	bits
                           1530 ;	../fb_rs.c:295: send_ok();//rs_send_s("OK\n");
   06BA C0*00              1531 	push	bits
   06BC 12s00r00           1532 	lcall	_send_ok
   06BF D0*00              1533 	pop	bits
   06C1                    1534 00225$:
                           1535 ;	../fb_rs.c:298: if(rsin[2]=='e' && rsin[3]=='c' && rsin[4]=='h' && rsin[5]=='o' && rsin[6]=='=' && rsinpos==9) {
   06C1 74 65              1536 	mov	a,#0x65
   06C3 B5*02 47           1537 	cjne	a,(_rsin + 0x0002),00243$
   06C6 74 63              1538 	mov	a,#0x63
   06C8 B5*03 42           1539 	cjne	a,(_rsin + 0x0003),00243$
   06CB 74 68              1540 	mov	a,#0x68
   06CD B5*04 3D           1541 	cjne	a,(_rsin + 0x0004),00243$
   06D0 74 6F              1542 	mov	a,#0x6F
   06D2 B5*05 38           1543 	cjne	a,(_rsin + 0x0005),00243$
   06D5 74 3D              1544 	mov	a,#0x3D
   06D7 B5*06 33           1545 	cjne	a,(_rsin + 0x0006),00243$
   06DA 74 09              1546 	mov	a,#0x09
   06DC B5*00 2E           1547 	cjne	a,_rsinpos,00243$
                           1548 ;	../fb_rs.c:299: write_ok=0;
   06DF C2*01              1549 	clr	_write_ok
                           1550 ;	../fb_rs.c:300: while (!write_ok) {
   06E1                    1551 00232$:
   06E1 20*01 22           1552 	jb	_write_ok,00234$
                           1553 ;	../fb_rs.c:301: START_WRITECYCLE
   06E4 75 E4 00           1554 	mov	_FMCON,#0x00
                           1555 ;	../fb_rs.c:302: FMADRH = 0x1C;
   06E7 75 E7 1C           1556 	mov	_FMADRH,#0x1C
                           1557 ;	../fb_rs.c:303: FMADRL = 0xFD;
   06EA 75 E6 FD           1558 	mov	_FMADRL,#0xFD
                           1559 ;	../fb_rs.c:304: if(rsin[7]=='0') FMDATA=0; else FMDATA=1;
   06ED 74 30              1560 	mov	a,#0x30
   06EF B5*07 05           1561 	cjne	a,(_rsin + 0x0007),00228$
   06F2 75 E5 00           1562 	mov	_FMDATA,#0x00
   06F5 80 03              1563 	sjmp	00229$
   06F7                    1564 00228$:
   06F7 75 E5 01           1565 	mov	_FMDATA,#0x01
   06FA                    1566 00229$:
                           1567 ;	../fb_rs.c:305: STOP_WRITECYCLE
   06FA 75 E4 68           1568 	mov	_FMCON,#0x68
                           1569 ;	../fb_rs.c:306: if(!(FMCON & 0x01)) write_ok=1;	// pruefen, ob erfolgreich geflasht
   06FD E5 E4              1570 	mov	a,_FMCON
   06FF 20 E0 DF           1571 	jb	acc.0,00232$
   0702 D2*01              1572 	setb	_write_ok
   0704 80 DB              1573 	sjmp	00232$
   0706                    1574 00234$:
                           1575 ;	../fb_rs.c:308: send_ok();
   0706 C0*00              1576 	push	bits
   0708 12s00r00           1577 	lcall	_send_ok
   070B D0*00              1578 	pop	bits
   070D                    1579 00243$:
                           1580 ;	../fb_rs.c:312: if(!busy){// wenn nichts zu senden ist den Empfangspuffer löschen
   070D 20*00 13           1581 	jb	b0,00248$
                           1582 ;	../fb_rs.c:313: for(n=0;n<30;n++) rsin[n]=0x00;
   0710 7F 00              1583 	mov	r7,#0x00
   0712                    1584 00265$:
   0712 BF 1E 00           1585 	cjne	r7,#0x1E,00533$
   0715                    1586 00533$:
   0715 50 09              1587 	jnc	00268$
   0717 EF                 1588 	mov	a,r7
   0718 24r00              1589 	add	a,#_rsin
   071A F8                 1590 	mov	r0,a
   071B 76 00              1591 	mov	@r0,#0x00
   071D 0F                 1592 	inc	r7
   071E 80 F2              1593 	sjmp	00265$
   0720                    1594 00268$:
                           1595 ;	../fb_rs.c:314: rsinpos=0;
   0720 75*00 00           1596 	mov	_rsinpos,#0x00
   0723                    1597 00248$:
                           1598 ;	../fb_rs.c:318: if(tel_sent && fb_state==0 && (TH1<0XC0) && (!wait_for_ack))//wenn tele gesendet ist
   0723 30*00 2E           1599 	jnb	_tel_sent,00252$
   0726 E5*00              1600 	mov	a,_fb_state
   0728 70 2A              1601 	jnz	00252$
   072A 74 40              1602 	mov	a,#0x100 - 0xC0
   072C 25 8D              1603 	add	a,_TH1
   072E 40 24              1604 	jc	00252$
   0730 20*00 21           1605 	jb	_wait_for_ack,00252$
                           1606 ;	../fb_rs.c:320: process_tel();
   0733 12s00r00           1607 	lcall	_process_tel
                           1608 ;	../fb_rs.c:321: tel_sent=0;
   0736 C2*00              1609 	clr	_tel_sent
                           1610 ;	../fb_rs.c:322: for(n=0;n<30;n++) rsin[n]=0x00;
   0738 7F 00              1611 	mov	r7,#0x00
   073A                    1612 00269$:
   073A BF 1E 00           1613 	cjne	r7,#0x1E,00539$
   073D                    1614 00539$:
   073D 50 09              1615 	jnc	00272$
   073F EF                 1616 	mov	a,r7
   0740 24r00              1617 	add	a,#_rsin
   0742 F8                 1618 	mov	r0,a
   0743 76 00              1619 	mov	@r0,#0x00
   0745 0F                 1620 	inc	r7
   0746 80 F2              1621 	sjmp	00269$
   0748                    1622 00272$:
                           1623 ;	../fb_rs.c:323: rsinpos=0;
   0748 75*00 00           1624 	mov	_rsinpos,#0x00
                           1625 ;	../fb_rs.c:324: busy=0;
   074B C2*00              1626 	clr	b0
                           1627 ;	../fb_rs.c:325: send_ok();//rs_send_s("OK\n");
   074D C0*00              1628 	push	bits
   074F 12s00r00           1629 	lcall	_send_ok
   0752 D0*00              1630 	pop	bits
   0754                    1631 00252$:
                           1632 ;	../fb_rs.c:327: if (tel_arrived ){//&& fb_state==13 //|| (tel_sent&& (telegramm[0]&0x20))
   0754 20*00 03           1633 	jb	_tel_arrived,00541$
   0757 02s00rE2           1634 	ljmp	00258$
   075A                    1635 00541$:
                           1636 ;	../fb_rs.c:328: process_tel();
   075A C0*00              1637 	push	bits
   075C 12s00r00           1638 	lcall	_process_tel
   075F D0*00              1639 	pop	bits
                           1640 ;	../fb_rs.c:330: } while(1);
   0761 02s00rE2           1641 	ljmp	00258$
                           1642 	.area CSEG    (CODE)
                           1643 	.area CONST   (CODE)
   0000                    1644 __str_0:
   0000 4B 75 62 69 27 73  1645 	.ascii "Kubi's RS-interface V2.01 "
        20 52 53 2D 69 6E
        74 65 72 66 61 63
        65 20 56 32 2E 30
        31 20
   001A 00                 1646 	.db 0x00
   001B                    1647 __str_1:
   001B 31 31 35 32        1648 	.ascii "1152"
   001F 00                 1649 	.db 0x00
   0020                    1650 __str_2:
   0020 30 30 20 42 61 75  1651 	.ascii "00 Baud."
        64 2E
   0028 0A                 1652 	.db 0x0A
   0029 00                 1653 	.db 0x00
   002A                    1654 __str_3:
   002A 66 69 6C 74 65 72  1655 	.ascii "filtered"
        65 64
   0032 0A                 1656 	.db 0x0A
   0033 00                 1657 	.db 0x00
   0034                    1658 __str_4:
   0034 65 72 72 6F 72 3A  1659 	.ascii "error: unknown baudrate!"
        20 75 6E 6B 6E 6F
        77 6E 20 62 61 75
        64 72 61 74 65 21
   004C 0A                 1660 	.db 0x0A
   004D 00                 1661 	.db 0x00
   004E                    1662 __str_5:
   004E 3D 20 68 65 78     1663 	.ascii "= hex"
   0053 00                 1664 	.db 0x00
   0054                    1665 __str_6:
   0054 20 64 65 63 20     1666 	.ascii " dec "
   0059 00                 1667 	.db 0x00
                           1668 	.area XINIT   (CODE)
                           1669 	.area CABS    (ABS,CODE)
